LX51 LINKER/LOCATER V4.66.97.0                                                          06/16/2023  12:31:30  PAGE 1


LX51 LINKER/LOCATER V4.66.97.0, INVOKED BY:
D:\KEIL_V5\C51\BIN\LX51.EXE .\output\uart.obj, .\output\main.obj, .\output\delay.obj, .\output\system_clock.obj, .\outpu
>> t\lcd.obj, .\output\gpio.obj, .\output\gxhtc.obj, .\output\Disp.obj, .\output\buzzer.obj, .\output\adc.obj, .\output\
>> rtc.obj, .\output\STARTUP.obj TO .\output\CA51F252L3-ZigB PRINT (.\lst\CA51F252L3-ZigB.map) REMOVEUNUSED CLASSES (XDA
>> TA (X:0X0-X:0X7FFF), HDATA (X:0X0-X:0X7FFF), CODE (C:0X0-C:0X7FFF), CONST (C:0X0-C:0X7FFF), ECODE (C:0X0-C:0X7FFF), H
>> CONST (C:0X0-C:0X7FFF))


CPU MODE:     8051 MODE
MEMORY MODEL: SMALL WITH FLOATING POINT ARITHMETIC


INPUT MODULES INCLUDED:
  .\output\uart.obj (UART)
         COMMENT TYPE 0: C51 V9.60.0.0
  .\output\main.obj (MAIN)
         COMMENT TYPE 0: C51 V9.60.0.0
  .\output\delay.obj (DELAY)
         COMMENT TYPE 0: C51 V9.60.0.0
  .\output\system_clock.obj (SYSTEM_CLOCK)
         COMMENT TYPE 0: C51 V9.60.0.0
  .\output\lcd.obj (LCD)
         COMMENT TYPE 0: C51 V9.60.0.0
  .\output\gpio.obj (GPIO)
         COMMENT TYPE 0: C51 V9.60.0.0
  .\output\gxhtc.obj (GXHTC)
         COMMENT TYPE 0: C51 V9.60.0.0
  .\output\Disp.obj (DISP)
         COMMENT TYPE 0: C51 V9.60.0.0
  .\output\buzzer.obj (BUZZER)
         COMMENT TYPE 0: C51 V9.60.0.0
  .\output\adc.obj (ADC)
         COMMENT TYPE 0: C51 V9.60.0.0
  .\output\rtc.obj (RTC)
         COMMENT TYPE 0: C51 V9.60.0.0
  .\output\STARTUP.obj (?C_STARTUP)
         COMMENT TYPE 1: A51 / ASM51 Assembler
  D:\KEIL_V5\C51\LIB\C51FPS.LIB (?C?FPADD)
         COMMENT TYPE 1: A51 / ASM51 Assembler
  D:\KEIL_V5\C51\LIB\C51FPS.LIB (?C?FPMUL)
         COMMENT TYPE 1: A51 / ASM51 Assembler
  D:\KEIL_V5\C51\LIB\C51FPS.LIB (?C?FPDIV)
         COMMENT TYPE 1: A51 / ASM51 Assembler
  D:\KEIL_V5\C51\LIB\C51FPS.LIB (?C?FPCMP)
         COMMENT TYPE 1: A51 / ASM51 Assembler
  D:\KEIL_V5\C51\LIB\C51FPS.LIB (?C?FCAST)
         COMMENT TYPE 1: A51 / ASM51 Assembler
  D:\KEIL_V5\C51\LIB\C51FPS.LIB (VSPRINTF)
         COMMENT TYPE 1: A51 / ASM51 Assembler
  D:\KEIL_V5\C51\LIB\C51FPS.LIB (?C?FPGETOPN)
         COMMENT TYPE 1: A51 / ASM51 Assembler
  D:\KEIL_V5\C51\LIB\C51FPS.LIB (PRINTF)
         COMMENT TYPE 1: A51 / ASM51 Assembler
  D:\KEIL_V5\C51\LIB\C51FPS.LIB (?C?FPROUND)
         COMMENT TYPE 1: A51 / ASM51 Assembler
  D:\KEIL_V5\C51\LIB\C51FPS.LIB (?C?FPCONVERT)
         COMMENT TYPE 1: A51 / ASM51 Assembler
  D:\KEIL_V5\C51\LIB\C51FPS.LIB (?C?FTNPWR)
         COMMENT TYPE 1: A51 / ASM51 Assembler
  D:\KEIL_V5\C51\LIB\C51S.LIB (?C?CLDPTR)
         COMMENT TYPE 1: A51 / ASM51 Assembler
  D:\KEIL_V5\C51\LIB\C51S.LIB (?C?CLDOPTR)
         COMMENT TYPE 1: A51 / ASM51 Assembler
  D:\KEIL_V5\C51\LIB\C51S.LIB (?C?CSTPTR)
         COMMENT TYPE 1: A51 / ASM51 Assembler
  D:\KEIL_V5\C51\LIB\C51S.LIB (?C?LMUL)
LX51 LINKER/LOCATER V4.66.97.0                                                        06/16/2023  12:31:30  PAGE 2


         COMMENT TYPE 1: A51 / ASM51 Assembler
  D:\KEIL_V5\C51\LIB\C51S.LIB (?C?ULDIV)
         COMMENT TYPE 1: A51 / ASM51 Assembler
  D:\KEIL_V5\C51\LIB\C51S.LIB (?C?LNEG)
         COMMENT TYPE 1: A51 / ASM51 Assembler
  D:\KEIL_V5\C51\LIB\C51S.LIB (?C?LLDOPTR)
         COMMENT TYPE 1: A51 / ASM51 Assembler
  D:\KEIL_V5\C51\LIB\C51S.LIB (?C?LSTOPTR)
         COMMENT TYPE 1: A51 / ASM51 Assembler
  D:\KEIL_V5\C51\LIB\C51S.LIB (?C?LLDOPTR0)
         COMMENT TYPE 1: A51 / ASM51 Assembler
  D:\KEIL_V5\C51\LIB\C51S.LIB (?C?LSTIDATA)
         COMMENT TYPE 1: A51 / ASM51 Assembler
  D:\KEIL_V5\C51\LIB\C51S.LIB (?C?PLDIIDATA)
         COMMENT TYPE 1: A51 / ASM51 Assembler
  D:\KEIL_V5\C51\LIB\C51S.LIB (?C?CCASE)
         COMMENT TYPE 1: A51 / ASM51 Assembler
  D:\KEIL_V5\C51\LIB\C51S.LIB (PUTCHAR)
         COMMENT TYPE 1: A51 / ASM51 Assembler
  D:\KEIL_V5\C51\LIB\C51S.LIB (?C?LLDIDATA)
         COMMENT TYPE 1: A51 / ASM51 Assembler
  D:\KEIL_V5\C51\LIB\C51S.LIB (?C?LLDXDATA)
         COMMENT TYPE 1: A51 / ASM51 Assembler
  D:\KEIL_V5\C51\LIB\C51S.LIB (?C?LLDPDATA)
         COMMENT TYPE 1: A51 / ASM51 Assembler
  D:\KEIL_V5\C51\LIB\C51S.LIB (?C?LLDCODE)
         COMMENT TYPE 1: A51 / ASM51 Assembler
  D:\KEIL_V5\C51\LIB\C51S.LIB (?C?LLDIDATA0)
         COMMENT TYPE 1: A51 / ASM51 Assembler
  D:\KEIL_V5\C51\LIB\C51S.LIB (?C?LLDXDATA0)
         COMMENT TYPE 1: A51 / ASM51 Assembler
  D:\KEIL_V5\C51\LIB\C51S.LIB (?C?LLDPDATA0)
         COMMENT TYPE 1: A51 / ASM51 Assembler
  D:\KEIL_V5\C51\LIB\C51S.LIB (?C?LLDCODE0)
         COMMENT TYPE 1: A51 / ASM51 Assembler
  D:\KEIL_V5\C51\LIB\C51S.LIB (?C?LSTXDATA)
         COMMENT TYPE 1: A51 / ASM51 Assembler
  D:\KEIL_V5\C51\LIB\C51S.LIB (?C?LSTPDATA)
         COMMENT TYPE 1: A51 / ASM51 Assembler


ACTIVE MEMORY CLASSES OF MODULE:  .\output\CA51F252L3-ZigB (UART)

BASE        START       END         USED      MEMORY CLASS
==========================================================
X:000000H   X:000000H   X:007FFFH   000256H   XDATA
X:000000H   X:000000H   X:007FFFH             HDATA
C:000000H   C:000000H   C:007FFFH   001332H   CODE
C:000000H   C:000000H   C:007FFFH   00003CH   CONST
C:000000H   C:000000H   C:007FFFH             ECODE
C:000000H   C:000000H   C:007FFFH             HCONST
I:000000H   I:000000H   I:00007FH   00009FH   DATA
I:000020H.0 I:000020H.0 I:00002FH.7 000001H.4 BIT
I:000000H   I:000000H   I:0000FFH   000001H   IDATA


MEMORY MAP OF MODULE:  .\output\CA51F252L3-ZigB (UART)


START     STOP      LENGTH    ALIGN  RELOC    MEMORY CLASS   SEGMENT NAME
=========================================================================

* * * * * * * * * * *   D A T A   M E M O R Y   * * * * * * * * * * * * *
000000H   000007H   000008H   ---    AT..     DATA           "REG BANK 0"
000008H   000017H   000010H   BYTE   UNIT     DATA           ?DT?GXHTC
LX51 LINKER/LOCATER V4.66.97.0                                                        06/16/2023  12:31:30  PAGE 3


000018H   00001BH   000004H   BYTE   UNIT     DATA           ?DT?ADC
00001CH.0 00001FH.7 000004H.0 ---    ---      **GAP**
000020H.0 000021H.0 000001H.1 BIT    UNIT     BIT            _BIT_GROUP_
000021H.1 000021H.2 000000H.2 BIT    UNIT     BIT            ?BI?RTC
000021H.3 000021H.3 000000H.1 BIT    UNIT     BIT            ?BI?UART
000021H.4 000021H   000000H.4 ---    ---      **GAP**
000022H   000043H   000022H   BYTE   UNIT     DATA           ?DT?DISP
000044H   000044H   000001H   BYTE   UNIT     IDATA          ?STACK

* * * * * * * * * * *   C O D E   M E M O R Y   * * * * * * * * * * * * *
000000H   000002H   000003H   ---    OFFS..   CODE           ?CO??C_STARTUP?0
000003H   000030H   00002EH   BYTE   UNIT     CODE           ?PR?_VSPRINTF?VSPRINTF
000031H   000032H   000002H   ---    ---      **GAP**
000033H   000035H   000003H   BYTE   OFFS..   CODE           ?UART?00033
000036H   00005CH   000027H   BYTE   UNIT     CODE           ?PR?PUTCHAR?PUTCHAR
00005DH   000068H   00000CH   BYTE   UNIT     CODE           ?C_C51STARTUP
000069H   00006AH   000002H   ---    ---      **GAP**
00006BH   00006DH   000003H   BYTE   OFFS..   CODE           ?RTC?0006B
00006EH   000879H   00080CH   BYTE   UNIT     CODE           ?C?LIB_CODE
00087AH   000CE8H   00046FH   BYTE   UNIT     CODE           ?PR?PRINTF?PRINTF
000CE9H   000E57H   00016FH   BYTE   UNIT     CODE           ?PR?_GXHTC3_READ_RESULT?GXHTC
000E58H   000F17H   0000C0H   BYTE   UNIT     CODE           ?PR?GETGXTH30?GXHTC
000F18H   000FC1H   0000AAH   BYTE   UNIT     CODE           ?PR?_AL_FLOAT_BUFFER_SORT?GXHTC
000FC2H   00103BH   00007AH   BYTE   UNIT     CODE           ?PR?UART1_ISR?UART
00103CH   0010A8H   00006DH   BYTE   UNIT     CODE           ?PR?_UART1_PUTCHAR?UART
0010A9H   001100H   000058H   BYTE   UNIT     CODE           ?PR?_UART1_INITIAL?UART
001101H   00114EH   00004EH   BYTE   UNIT     CODE           ?PR?_GXHTC3_SEND_BYTE?GXHTC
00114FH   001199H   00004BH   BYTE   UNIT     CODE           ?PR?_GXHTC3_READ_BYTE?GXHTC
00119AH   0011DAH   000041H   BYTE   UNIT     CODE           ?PR?GXHTC3_WAIT_ACK?GXHTC
0011DBH   001214H   00003AH   BYTE   UNIT     CODE           ?PR?_UART_PRINTF?UART
001215H   001239H   000025H   BYTE   UNIT     CODE           ?PR?_UARTPUTSTR?UART
00123AH   00125AH   000021H   BYTE   UNIT     CODE           ?PR?MAIN?MAIN
00125BH   00127BH   000021H   BYTE   UNIT     CODE           ?PR?RTC_ISR?RTC
00127CH   001299H   00001EH   BYTE   UNIT     CODE           ?PR?_DELAY_US?DELAY
00129AH   0012B3H   00001AH   BYTE   UNIT     CODE           ?PR?GXHTC3_START?GXHTC
0012B4H   0012CDH   00001AH   BYTE   UNIT     CODE           ?PR?GXHTC3_ACK?GXHTC
0012CEH   0012E7H   00001AH   BYTE   UNIT     CODE           ?PR?GXHTC3_NACK?GXHTC
0012E8H   001300H   000019H   BYTE   UNIT     CODE           ?PR?GXHTC3_STOP?GXHTC
001301H   001318H   000018H   BYTE   UNIT     CODE           ?PR?_DELAY_MS?DELAY
001319H   001327H   00000FH   BYTE   UNIT     CODE           ?PR?GXHTC3_INIT?GXHTC
001328H   00132EH   000007H   BYTE   UNIT     CODE           ?PR?GXHTC3_SDA_OUT?GXHTC
00132FH   001335H   000007H   BYTE   UNIT     CODE           ?PR?GXHTC3_SDA_IN?GXHTC
001336H   001356H   000021H   BYTE   UNIT     CONST          ?CO?MAIN
001357H   001371H   00001BH   BYTE   UNIT     CONST          ?CO?GXHTC

* * * * * * * * * * *  X D A T A   M E M O R Y  * * * * * * * * * * * * *
000000H   0000FFH   000100H   BYTE   UNIT     XDATA          _XDATA_GROUP_
000100H   00017BH   00007CH   BYTE   UNIT     XDATA          ?XD?UART
00017CH   007FFFH   007E84H   ---    ---      **GAP**
008000H   008000H   000001H   BYTE   OFFS..   XDATA          ?XD?MAIN?132
008001H   008001H   000001H   BYTE   OFFS..   XDATA          ?XD?MAIN?140
008002H   008002H   000001H   BYTE   OFFS..   XDATA          ?XD?MAIN?149
008003H   008003H   000001H   BYTE   OFFS..   XDATA          ?XD?MAIN?161
008004H   008004H   000001H   BYTE   OFFS..   XDATA          ?XD?MAIN?176
008005H   008005H   000001H   BYTE   OFFS..   XDATA          ?XD?MAIN?190
008006H   008006H   000001H   BYTE   OFFS..   XDATA          ?XD?MAIN?204
008007H   008007H   000001H   BYTE   OFFS..   XDATA          ?XD?MAIN?217
008008H   008008H   000001H   BYTE   OFFS..   XDATA          ?XD?MAIN?139
008009H   008009H   000001H   BYTE   OFFS..   XDATA          ?XD?MAIN?148
00800AH   00800AH   000001H   BYTE   OFFS..   XDATA          ?XD?MAIN?160
00800BH   00800BH   000001H   BYTE   OFFS..   XDATA          ?XD?MAIN?175
00800CH   00800CH   000001H   BYTE   OFFS..   XDATA          ?XD?MAIN?189
00800DH   00800DH   000001H   BYTE   OFFS..   XDATA          ?XD?MAIN?203
00800EH   00800EH   000001H   BYTE   OFFS..   XDATA          ?XD?MAIN?216
00800FH   00800FH   000001H   BYTE   OFFS..   XDATA          ?XD?MAIN?11
LX51 LINKER/LOCATER V4.66.97.0                                                        06/16/2023  12:31:30  PAGE 4


008010H   008010H   000001H   BYTE   OFFS..   XDATA          ?XD?MAIN?147
008011H   008011H   000001H   BYTE   OFFS..   XDATA          ?XD?MAIN?159
008012H   008012H   000001H   BYTE   OFFS..   XDATA          ?XD?MAIN?174
008013H   008013H   000001H   BYTE   OFFS..   XDATA          ?XD?MAIN?188
008014H   008014H   000001H   BYTE   OFFS..   XDATA          ?XD?MAIN?202
008015H   008015H   000001H   BYTE   OFFS..   XDATA          ?XD?MAIN?215
008016H   008016H   000001H   BYTE   OFFS..   XDATA          ?XD?MAIN?10
008017H   008017H   000001H   BYTE   OFFS..   XDATA          ?XD?MAIN?20
008018H   008018H   000001H   BYTE   OFFS..   XDATA          ?XD?MAIN?158
008019H   008019H   000001H   BYTE   OFFS..   XDATA          ?XD?MAIN?173
00801AH   00801AH   000001H   BYTE   OFFS..   XDATA          ?XD?MAIN?187
00801BH   00801BH   000001H   BYTE   OFFS..   XDATA          ?XD?MAIN?201
00801CH   00801CH   000001H   BYTE   OFFS..   XDATA          ?XD?MAIN?214
00801DH   00801DH   000001H   BYTE   OFFS..   XDATA          ?XD?MAIN?9
00801EH   00801EH   000001H   BYTE   OFFS..   XDATA          ?XD?MAIN?19
00801FH   00801FH   000001H   BYTE   OFFS..   XDATA          ?XD?MAIN?27
008020H   008020H   000001H   BYTE   OFFS..   XDATA          ?XD?MAIN?172
008021H   008021H   000001H   BYTE   OFFS..   XDATA          ?XD?MAIN?186
008022H   008022H   000001H   BYTE   OFFS..   XDATA          ?XD?MAIN?200
008023H   008023H   000001H   BYTE   OFFS..   XDATA          ?XD?MAIN?213
008024H   008024H   000001H   BYTE   OFFS..   XDATA          ?XD?MAIN?8
008025H   008025H   000001H   BYTE   OFFS..   XDATA          ?XD?MAIN?18
008026H   008026H   000001H   BYTE   OFFS..   XDATA          ?XD?MAIN?26
008027H   008027H   000001H   BYTE   OFFS..   XDATA          ?XD?MAIN?34
008028H   008028H   000001H   BYTE   OFFS..   XDATA          ?XD?MAIN?185
008029H   008029H   000001H   BYTE   OFFS..   XDATA          ?XD?MAIN?199
00802AH   00802AH   000001H   BYTE   OFFS..   XDATA          ?XD?MAIN?212
00802BH   00802BH   000001H   BYTE   OFFS..   XDATA          ?XD?MAIN?7
00802CH   00802CH   000001H   BYTE   OFFS..   XDATA          ?XD?MAIN?17
00802DH   00802DH   000001H   BYTE   OFFS..   XDATA          ?XD?MAIN?25
00802EH   00802EH   000001H   BYTE   OFFS..   XDATA          ?XD?MAIN?33
00802FH   00802FH   000001H   BYTE   OFFS..   XDATA          ?XD?MAIN?38
008030H   008030H   000001H   BYTE   OFFS..   XDATA          ?XD?MAIN?198
008031H   008031H   000001H   BYTE   OFFS..   XDATA          ?XD?MAIN?211
008032H   008032H   000001H   BYTE   OFFS..   XDATA          ?XD?MAIN?6
008033H   008033H   000001H   BYTE   OFFS..   XDATA          ?XD?MAIN?16
008034H   008034H   000001H   BYTE   OFFS..   XDATA          ?XD?MAIN?24
008035H   008035H   000001H   BYTE   OFFS..   XDATA          ?XD?MAIN?32
008036H   008036H   000001H   BYTE   OFFS..   XDATA          ?XD?MAIN?37
008037H   008037H   000001H   BYTE   OFFS..   XDATA          ?XD?MAIN?39
008038H   008038H   000001H   BYTE   OFFS..   XDATA          ?XD?MAIN?210
008039H   008039H   000001H   BYTE   OFFS..   XDATA          ?XD?MAIN?5
00803AH   00803AH   000001H   BYTE   OFFS..   XDATA          ?XD?MAIN?15
00803BH   00803BH   000001H   BYTE   OFFS..   XDATA          ?XD?MAIN?23
00803CH   00803CH   000001H   BYTE   OFFS..   XDATA          ?XD?MAIN?31
00803DH   00803DH   000001H   BYTE   OFFS..   XDATA          ?XD?MAIN?36
00803EH   00803FH   000002H   ---    ---      **GAP**
008040H   008040H   000001H   BYTE   OFFS..   XDATA          ?XD?MAIN?74
008041H   008041H   000001H   BYTE   OFFS..   XDATA          ?XD?MAIN?77
008042H   008042H   000001H   BYTE   OFFS..   XDATA          ?XD?MAIN?103
008043H   008047H   000005H   ---    ---      **GAP**
008048H   008048H   000001H   BYTE   OFFS..   XDATA          ?XD?MAIN?57
008049H   008049H   000001H   BYTE   OFFS..   XDATA          ?XD?MAIN?58
00804AH   00804AH   000001H   BYTE   OFFS..   XDATA          ?XD?MAIN?59
00804BH   00804BH   000001H   BYTE   OFFS..   XDATA          ?XD?MAIN?60
00804CH   00804CH   000001H   BYTE   OFFS..   XDATA          ?XD?MAIN?127
00804DH   00804DH   000001H   BYTE   OFFS..   XDATA          ?XD?MAIN?197
00804EH   00804EH   000001H   BYTE   OFFS..   XDATA          ?XD?MAIN?30
00804FH   00804FH   000001H   ---    ---      **GAP**
008050H   008050H   000001H   BYTE   OFFS..   XDATA          ?XD?MAIN?108
008051H   008051H   000001H   BYTE   OFFS..   XDATA          ?XD?MAIN?104
008052H   008052H   000001H   BYTE   OFFS..   XDATA          ?XD?MAIN?110
008053H   008053H   000001H   BYTE   OFFS..   XDATA          ?XD?MAIN?105
008054H   008054H   000001H   BYTE   OFFS..   XDATA          ?XD?MAIN?112
008055H   008055H   000001H   BYTE   OFFS..   XDATA          ?XD?MAIN?106
LX51 LINKER/LOCATER V4.66.97.0                                                        06/16/2023  12:31:30  PAGE 5


008056H   008056H   000001H   BYTE   OFFS..   XDATA          ?XD?MAIN?114
008057H   008057H   000001H   BYTE   OFFS..   XDATA          ?XD?MAIN?107
008058H   008058H   000001H   BYTE   OFFS..   XDATA          ?XD?MAIN?81
008059H   008059H   000001H   BYTE   OFFS..   XDATA          ?XD?MAIN?56
00805AH   00805AH   000001H   BYTE   OFFS..   XDATA          ?XD?MAIN?54
00805BH   00805BH   000001H   BYTE   OFFS..   XDATA          ?XD?MAIN?48
00805CH   00805CH   000001H   BYTE   OFFS..   XDATA          ?XD?MAIN?47
00805DH   00805FH   000003H   ---    ---      **GAP**
008060H   008060H   000001H   BYTE   OFFS..   XDATA          ?XD?MAIN?88
008061H   008061H   000001H   BYTE   OFFS..   XDATA          ?XD?MAIN?73
008062H   008062H   000001H   BYTE   OFFS..   XDATA          ?XD?MAIN?83
008063H   008063H   000001H   BYTE   OFFS..   XDATA          ?XD?MAIN?76
008064H   008064H   000001H   BYTE   OFFS..   XDATA          ?XD?MAIN?79
008065H   008065H   000001H   BYTE   OFFS..   XDATA          ?XD?MAIN?80
008066H   008066H   000001H   BYTE   OFFS..   XDATA          ?XD?MAIN?157
008067H   008067H   000001H   BYTE   OFFS..   XDATA          ?XD?MAIN?22
008068H   008068H   000001H   BYTE   OFFS..   XDATA          ?XD?MAIN?90
008069H   008069H   000001H   BYTE   OFFS..   XDATA          ?XD?MAIN?92
00806AH   00806AH   000001H   BYTE   OFFS..   XDATA          ?XD?MAIN?93
00806BH   00806BH   000001H   BYTE   OFFS..   XDATA          ?XD?MAIN?94
00806CH   00806CH   000001H   BYTE   OFFS..   XDATA          ?XD?MAIN?95
00806DH   00806DH   000001H   BYTE   OFFS..   XDATA          ?XD?MAIN?96
00806EH   00806EH   000001H   BYTE   OFFS..   XDATA          ?XD?MAIN?97
00806FH   00806FH   000001H   BYTE   OFFS..   XDATA          ?XD?MAIN?98
008070H   008070H   000001H   BYTE   OFFS..   XDATA          ?XD?MAIN?100
008071H   008071H   000001H   BYTE   OFFS..   XDATA          ?XD?MAIN?101
008072H   008072H   000001H   BYTE   OFFS..   XDATA          ?XD?MAIN?41
008073H   008073H   000001H   BYTE   OFFS..   XDATA          ?XD?MAIN?42
008074H   008074H   000001H   BYTE   OFFS..   XDATA          ?XD?MAIN?87
008075H   008077H   000003H   ---    ---      **GAP**
008078H   008078H   000001H   BYTE   OFFS..   XDATA          ?XD?MAIN?29
008079H   008079H   000001H   BYTE   OFFS..   XDATA          ?XD?MAIN?44
00807AH   00807AH   000001H   BYTE   OFFS..   XDATA          ?XD?MAIN?40
00807BH   00807BH   000001H   BYTE   OFFS..   XDATA          ?XD?MAIN?82
00807CH   00807CH   000001H   BYTE   OFFS..   XDATA          ?XD?MAIN?75
00807DH   00807DH   000001H   BYTE   OFFS..   XDATA          ?XD?MAIN?102
00807EH   00807EH   000001H   BYTE   OFFS..   XDATA          ?XD?MAIN?99
00807FH   00807FH   000001H   ---    ---      **GAP**
008080H   008080H   000001H   BYTE   OFFS..   XDATA          ?XD?MAIN?116
008081H   008081H   000001H   BYTE   OFFS..   XDATA          ?XD?MAIN?121
008082H   008082H   000001H   BYTE   OFFS..   XDATA          ?XD?MAIN?117
008083H   008083H   000001H   BYTE   OFFS..   XDATA          ?XD?MAIN?68
008084H   008084H   000001H   BYTE   OFFS..   XDATA          ?XD?MAIN?64
008085H   008085H   000001H   BYTE   OFFS..   XDATA          ?XD?MAIN?70
008086H   008086H   000001H   BYTE   OFFS..   XDATA          ?XD?MAIN?67
008087H   008087H   000001H   BYTE   OFFS..   XDATA          ?XD?MAIN?109
008088H   008088H   000001H   BYTE   OFFS..   XDATA          ?XD?MAIN?55
008089H   008089H   000001H   BYTE   OFFS..   XDATA          ?XD?MAIN?52
00808AH   00808AH   000001H   BYTE   OFFS..   XDATA          ?XD?MAIN?69
00808BH   00808BH   000001H   BYTE   OFFS..   XDATA          ?XD?MAIN?66
00808CH   00808CH   000001H   BYTE   OFFS..   XDATA          ?XD?MAIN?65
00808DH   00808DH   000001H   BYTE   OFFS..   XDATA          ?XD?MAIN?62
00808EH   00808FH   000002H   ---    ---      **GAP**
008090H   008090H   000001H   BYTE   OFFS..   XDATA          ?XD?MAIN?86
008091H   008091H   000001H   BYTE   OFFS..   XDATA          ?XD?MAIN?85
008092H   008092H   000001H   BYTE   OFFS..   XDATA          ?XD?MAIN?184
008093H   008093H   000001H   BYTE   OFFS..   XDATA          ?XD?MAIN?138
008094H   0080FFH   00006CH   ---    ---      **GAP**
008100H   008100H   000001H   BYTE   OFFS..   XDATA          ?XD?MAIN?46
008101H   008101H   000001H   BYTE   OFFS..   XDATA          ?XD?MAIN?63
008102H   008102H   000001H   ---    ---      **GAP**
008103H   008103H   000001H   BYTE   OFFS..   XDATA          ?XD?MAIN?45
008104H   008105H   000002H   ---    ---      **GAP**
008106H   008106H   000001H   BYTE   OFFS..   XDATA          ?XD?MAIN?71
008107H   008107H   000001H   BYTE   OFFS..   XDATA          ?XD?MAIN?171
LX51 LINKER/LOCATER V4.66.97.0                                                        06/16/2023  12:31:30  PAGE 6


008108H   008108H   000001H   BYTE   OFFS..   XDATA          ?XD?MAIN?28
008109H   008109H   000001H   BYTE   OFFS..   XDATA          ?XD?MAIN?170
00810AH   00810AH   000001H   BYTE   OFFS..   XDATA          ?XD?MAIN?35
00810BH   00810BH   000001H   BYTE   OFFS..   XDATA          ?XD?MAIN?51
00810CH   00810CH   000001H   BYTE   OFFS..   XDATA          ?XD?MAIN?49
00810DH   00810DH   000001H   BYTE   OFFS..   XDATA          ?XD?MAIN?53
00810EH   00810EH   000001H   BYTE   OFFS..   XDATA          ?XD?MAIN?50
00810FH   00810FH   000001H   BYTE   OFFS..   XDATA          ?XD?MAIN?84
008110H   008110H   000001H   BYTE   OFFS..   XDATA          ?XD?MAIN?89
008111H   008116H   000006H   ---    ---      **GAP**
008117H   008117H   000001H   BYTE   OFFS..   XDATA          ?XD?MAIN?113
008118H   00811DH   000006H   ---    ---      **GAP**
00811EH   00811EH   000001H   BYTE   OFFS..   XDATA          ?XD?MAIN?4
00811FH   00811FH   000001H   BYTE   OFFS..   XDATA          ?XD?MAIN?43
008120H   008120H   000001H   BYTE   OFFS..   XDATA          ?XD?MAIN?120
008121H   008121H   000001H   BYTE   OFFS..   XDATA          ?XD?MAIN?123
008122H   008122H   000001H   BYTE   OFFS..   XDATA          ?XD?MAIN?126
008123H   008123H   000001H   BYTE   OFFS..   XDATA          ?XD?MAIN?131
008124H   008124H   000001H   BYTE   OFFS..   XDATA          ?XD?MAIN?137
008125H   008125H   000001H   BYTE   OFFS..   XDATA          ?XD?MAIN?146
008126H   008126H   000001H   BYTE   OFFS..   XDATA          ?XD?MAIN?156
008127H   008127H   000001H   BYTE   OFFS..   XDATA          ?XD?MAIN?169
008128H   008128H   000001H   BYTE   OFFS..   XDATA          ?XD?MAIN?122
008129H   008129H   000001H   BYTE   OFFS..   XDATA          ?XD?MAIN?125
00812AH   00812AH   000001H   BYTE   OFFS..   XDATA          ?XD?MAIN?130
00812BH   00812BH   000001H   BYTE   OFFS..   XDATA          ?XD?MAIN?136
00812CH   00812CH   000001H   BYTE   OFFS..   XDATA          ?XD?MAIN?145
00812DH   00812DH   000001H   BYTE   OFFS..   XDATA          ?XD?MAIN?155
00812EH   00812EH   000001H   BYTE   OFFS..   XDATA          ?XD?MAIN?168
00812FH   00812FH   000001H   BYTE   OFFS..   XDATA          ?XD?MAIN?183
008130H   008130H   000001H   BYTE   OFFS..   XDATA          ?XD?MAIN?124
008131H   008131H   000001H   BYTE   OFFS..   XDATA          ?XD?MAIN?129
008132H   008132H   000001H   BYTE   OFFS..   XDATA          ?XD?MAIN?135
008133H   008133H   000001H   BYTE   OFFS..   XDATA          ?XD?MAIN?144
008134H   008134H   000001H   BYTE   OFFS..   XDATA          ?XD?MAIN?154
008135H   008135H   000001H   BYTE   OFFS..   XDATA          ?XD?MAIN?167
008136H   008136H   000001H   BYTE   OFFS..   XDATA          ?XD?MAIN?182
008137H   008137H   000001H   BYTE   OFFS..   XDATA          ?XD?MAIN?196
008138H   008138H   000001H   BYTE   OFFS..   XDATA          ?XD?MAIN?128
008139H   008139H   000001H   BYTE   OFFS..   XDATA          ?XD?MAIN?134
00813AH   00813AH   000001H   BYTE   OFFS..   XDATA          ?XD?MAIN?143
00813BH   00813BH   000001H   BYTE   OFFS..   XDATA          ?XD?MAIN?153
00813CH   00813CH   000001H   BYTE   OFFS..   XDATA          ?XD?MAIN?166
00813DH   00813DH   000001H   BYTE   OFFS..   XDATA          ?XD?MAIN?181
00813EH   00813EH   000001H   BYTE   OFFS..   XDATA          ?XD?MAIN?195
00813FH   00813FH   000001H   BYTE   OFFS..   XDATA          ?XD?MAIN?209
008140H   008140H   000001H   BYTE   OFFS..   XDATA          ?XD?MAIN?133
008141H   008141H   000001H   BYTE   OFFS..   XDATA          ?XD?MAIN?142
008142H   008142H   000001H   BYTE   OFFS..   XDATA          ?XD?MAIN?152
008143H   008143H   000001H   BYTE   OFFS..   XDATA          ?XD?MAIN?165
008144H   008144H   000001H   BYTE   OFFS..   XDATA          ?XD?MAIN?180
008145H   008145H   000001H   BYTE   OFFS..   XDATA          ?XD?MAIN?194
008146H   008146H   000001H   BYTE   OFFS..   XDATA          ?XD?MAIN?208
008147H   008147H   000001H   BYTE   OFFS..   XDATA          ?XD?MAIN?3
008148H   008148H   000001H   BYTE   OFFS..   XDATA          ?XD?MAIN?141
008149H   008149H   000001H   BYTE   OFFS..   XDATA          ?XD?MAIN?151
00814AH   00814AH   000001H   BYTE   OFFS..   XDATA          ?XD?MAIN?164
00814BH   00814BH   000001H   BYTE   OFFS..   XDATA          ?XD?MAIN?179
00814CH   00814CH   000001H   BYTE   OFFS..   XDATA          ?XD?MAIN?193
00814DH   00814DH   000001H   BYTE   OFFS..   XDATA          ?XD?MAIN?207
00814EH   00814EH   000001H   BYTE   OFFS..   XDATA          ?XD?MAIN?2
00814FH   00814FH   000001H   BYTE   OFFS..   XDATA          ?XD?MAIN?14
008150H   008150H   000001H   BYTE   OFFS..   XDATA          ?XD?MAIN?150
008151H   008151H   000001H   BYTE   OFFS..   XDATA          ?XD?MAIN?163
008152H   008152H   000001H   BYTE   OFFS..   XDATA          ?XD?MAIN?178
LX51 LINKER/LOCATER V4.66.97.0                                                        06/16/2023  12:31:30  PAGE 7


008153H   008153H   000001H   BYTE   OFFS..   XDATA          ?XD?MAIN?192
008154H   008154H   000001H   BYTE   OFFS..   XDATA          ?XD?MAIN?206
008155H   008155H   000001H   BYTE   OFFS..   XDATA          ?XD?MAIN?1
008156H   008156H   000001H   BYTE   OFFS..   XDATA          ?XD?MAIN?13
008157H   008157H   000001H   BYTE   OFFS..   XDATA          ?XD?MAIN?21
008158H   008158H   000001H   BYTE   OFFS..   XDATA          ?XD?MAIN?162
008159H   008159H   000001H   BYTE   OFFS..   XDATA          ?XD?MAIN?177
00815AH   00815AH   000001H   BYTE   OFFS..   XDATA          ?XD?MAIN?191
00815BH   00815BH   000001H   BYTE   OFFS..   XDATA          ?XD?MAIN?205
00815CH   00815CH   000001H   BYTE   OFFS..   XDATA          ?XD?MAIN?0
00815DH   00815DH   000001H   BYTE   OFFS..   XDATA          ?XD?MAIN?12
00815EH   00FBFFH   007AA2H   ---    ---      **GAP**
00FC00H   00FC00H   000001H   BYTE   OFFS..   XDATA          ?XD?MAIN?119
00FC01H   00FC01H   000001H   BYTE   OFFS..   XDATA          ?XD?MAIN?115
00FC02H   00FC02H   000001H   BYTE   OFFS..   XDATA          ?XD?MAIN?118
00FC03H   00FC03H   000001H   BYTE   OFFS..   XDATA          ?XD?MAIN?61
00FC04H   00FC04H   000001H   BYTE   OFFS..   XDATA          ?XD?MAIN?111
00FC05H   00FC05H   000001H   BYTE   OFFS..   XDATA          ?XD?MAIN?78
00FC06H   00FC06H   000001H   BYTE   OFFS..   XDATA          ?XD?MAIN?72
00FC07H   00FC07H   000001H   BYTE   OFFS..   XDATA          ?XD?MAIN?91

* * * * * * * * *   R E M O V E D     S E G M E N T S   * * * * * * * *
   *DEL*:           00001AH   BYTE   UNIT     CODE           ?PR?_DELAY_50US?DELAY
   *DEL*:           00000FH   BYTE   UNIT     CODE           ?PR?SYS_CLK_SET_IRCH?SYSTEM_CLOCK
   *DEL*:           000018H   BYTE   UNIT     CODE           ?PR?SYS_CLK_SET_IRCL?SYSTEM_CLOCK
   *DEL*:           000022H   BYTE   UNIT     CODE           ?PR?SYS_CLK_SET_XOSCL?SYSTEM_CLOCK
   *DEL*:           000030H   BYTE   UNIT     CODE           ?PR?_SYS_CLK_SET_PLL?SYSTEM_CLOCK
   *DEL*:           000011H   BYTE   UNIT     CODE           ?PR?SYS_CLK_SET_TFRC?SYSTEM_CLOCK
   *DEL*:           000054H   BYTE   UNIT     CODE           ?PR?LCD_OFF?LCD
   *DEL*:           00010AH   BYTE   UNIT     CODE           ?PR?LCD_INIT?LCD
   *DEL*:           000021H   BYTE   UNIT     CONST          ?CO?LCD
   *DEL*:           000067H   BYTE   UNIT     CODE           ?PR?GPIO_INIT?GPIO
   *DEL*:           000010H   BYTE   UNIT     CODE           ?PR?I2C_INIT?GPIO
   *DEL*:           00000FH   BYTE   UNIT     CODE           ?PR?ZIGBEE_GPIO_INIT?GPIO
   *DEL*:           000027H   BYTE   UNIT     CODE           ?PR?PWM6_INIT?BUZZER
   *DEL*:           000053H   BYTE   UNIT     CODE           ?PR?ADC_INIT?ADC
   *DEL*:           00001AH   BYTE   UNIT     CODE           ?PR?_RTC_WRITESECOND?RTC
   *DEL*:           00001AH   BYTE   UNIT     CODE           ?PR?_RTC_WRITEMINUTE?RTC
   *DEL*:           00001FH   BYTE   UNIT     CODE           ?PR?_RTC_WRITEHOUR?RTC
   *DEL*:           000012H   BYTE   UNIT     CODE           ?PR?_RTC_WRITEDAY?RTC
   *DEL*:           000025H   BYTE   UNIT     CODE           ?PR?_RTC_WRITEWEEK?RTC
   *DEL*:           000076H   BYTE   UNIT     CODE           ?PR?RTC_INIT?RTC
   *DEL*:           000038H   BYTE   UNIT     CONST          ?CO?RTC



OVERLAY MAP OF MODULE:   .\output\CA51F252L3-ZigB (UART)


FUNCTION/MODULE                      BIT_GROUP   DATA_GROUP   XDATA_GROUP
--> CALLED FUNCTION/MODULE          START  STOP  START  STOP  START  STOP
=========================================================================
UART1_ISR/UART                      ----- -----  ----- -----  ----- -----

*** NEW ROOT **********************

RTC_ISR/RTC                         ----- -----  ----- -----  ----- -----

*** NEW ROOT **********************

?C_C51STARTUP                       ----- -----  ----- -----  ----- -----
  +--> MAIN/MAIN

MAIN/MAIN                           ----- -----  0000H 0000H  ----- -----
  +--> _UART1_INITIAL/UART
LX51 LINKER/LOCATER V4.66.97.0                                                        06/16/2023  12:31:30  PAGE 8


  +--> GXHTC3_INIT/GXHTC
  +--> _UART_PRINTF/UART
  +--> GETGXTH30/GXHTC

_UART1_INITIAL/UART                 ----- -----  0001H 0004H  ----- -----

GXHTC3_INIT/GXHTC                   ----- -----  ----- -----  ----- -----

_UART_PRINTF/UART                   ----- -----  002AH 003EH  0000H 00FFH
  +--> _VSPRINTF/VSPRINTF
  +--> _UARTPUTSTR/UART

_VSPRINTF/VSPRINTF                  ----- -----  003FH 0044H  ----- -----
  +--> PRINTF/PRINTF

PRINTF/PRINTF                       20H.0 21H.0  0045H 0060H  ----- -----
  +--> PUTCHAR/PUTCHAR

PUTCHAR/PUTCHAR                     ----- -----  ----- -----  ----- -----

_UARTPUTSTR/UART                    ----- -----  003FH 0041H  ----- -----
  +--> _UART1_PUTCHAR/UART

_UART1_PUTCHAR/UART                 ----- -----  ----- -----  ----- -----

GETGXTH30/GXHTC                     ----- -----  0001H 0029H  ----- -----
  +--> _GXHTC3_READ_RESULT/GXHTC
  +--> _AL_FLOAT_BUFFER_SORT/GXHTC
  +--> _UART_PRINTF/UART

_GXHTC3_READ_RESULT/GXHTC           ----- -----  002AH 0042H  ----- -----
  +--> GXHTC3_START/GXHTC
  +--> _GXHTC3_SEND_BYTE/GXHTC
  +--> GXHTC3_WAIT_ACK/GXHTC
  +--> GXHTC3_STOP/GXHTC
  +--> _DELAY_MS/DELAY
  +--> GXHTC3_SDA_IN/GXHTC
  +--> _GXHTC3_READ_BYTE/GXHTC

GXHTC3_START/GXHTC                  ----- -----  ----- -----  ----- -----
  +--> GXHTC3_SDA_OUT/GXHTC
  +--> _DELAY_US/DELAY

GXHTC3_SDA_OUT/GXHTC                ----- -----  ----- -----  ----- -----

_DELAY_US/DELAY                     ----- -----  ----- -----  ----- -----

_GXHTC3_SEND_BYTE/GXHTC             ----- -----  0043H 0044H  ----- -----
  +--> GXHTC3_SDA_OUT/GXHTC
  +--> _DELAY_US/DELAY

GXHTC3_WAIT_ACK/GXHTC               ----- -----  0043H 0043H  ----- -----
  +--> GXHTC3_SDA_IN/GXHTC
  +--> _DELAY_US/DELAY
  +--> GXHTC3_STOP/GXHTC

GXHTC3_SDA_IN/GXHTC                 ----- -----  ----- -----  ----- -----

GXHTC3_STOP/GXHTC                   ----- -----  ----- -----  ----- -----
  +--> GXHTC3_SDA_OUT/GXHTC
  +--> _DELAY_US/DELAY

_DELAY_MS/DELAY                     ----- -----  ----- -----  ----- -----
  +--> _DELAY_US/DELAY

LX51 LINKER/LOCATER V4.66.97.0                                                        06/16/2023  12:31:30  PAGE 9


_GXHTC3_READ_BYTE/GXHTC             ----- -----  0043H 0045H  ----- -----
  +--> GXHTC3_SDA_IN/GXHTC
  +--> _DELAY_US/DELAY
  +--> GXHTC3_NACK/GXHTC
  +--> GXHTC3_ACK/GXHTC

GXHTC3_NACK/GXHTC                   ----- -----  ----- -----  ----- -----
  +--> GXHTC3_SDA_OUT/GXHTC
  +--> _DELAY_US/DELAY

GXHTC3_ACK/GXHTC                    ----- -----  ----- -----  ----- -----
  +--> GXHTC3_SDA_OUT/GXHTC
  +--> _DELAY_US/DELAY

_AL_FLOAT_BUFFER_SORT/GXHTC         ----- -----  002AH 0033H  ----- -----



PUBLIC SYMBOLS OF MODULE:  .\output\CA51F252L3-ZigB (UART)


      VALUE       CLASS    TYPE      PUBLIC SYMBOL NAME
      =================================================
      00000045H   DATA     ---       ?_PRINTF?BYTE
      00000045H   DATA     ---       ?_SPRINTF?BYTE
      0000002AH   DATA     BYTE      ?_uart_printf?BYTE
      0001003CH   DATA     ---       ?_VSPRINTF?BYTE
      010007D2H   CODE     ---       ?C?CCASE
      010005C8H   CODE     ---       ?C?CLDOPTR
      010005AFH   CODE     ---       ?C?CLDPTR
      00000000H   NUMBER   ---       ?C?CODESEG
      010005F5H   CODE     ---       ?C?CSTPTR
      0100038FH   CODE     ---       ?C?FCASTC
      0100038AH   CODE     ---       ?C?FCASTI
      01000385H   CODE     ---       ?C?FCASTL
      01000075H   CODE     ---       ?C?FPADD
      0100030EH   CODE     ---       ?C?FPCMP
      0100030CH   CODE     ---       ?C?FPCMP3
      0100043CH   CODE     ---       ?C?FPCONVERT
      0100026FH   CODE     ---       ?C?FPDIV
      010003C3H   CODE     ---       ?C?FPGETOPN2
      01000166H   CODE     ---       ?C?FPMUL
      010003F8H   CODE     ---       ?C?FPNANRESULT
      01000402H   CODE     ---       ?C?FPOVERFLOW
      010003DAH   CODE     ---       ?C?FPRESULT
      010003EEH   CODE     ---       ?C?FPRESULT2
      0100040DH   CODE     ---       ?C?FPROUND
      01000071H   CODE     ---       ?C?FPSUB
      010003FFH   CODE     ---       ?C?FPUNDERFLOW
      0100056FH   CODE     ---       ?C?FTNPWR
      0100081CH   CODE     ---       ?C?LLDCODE
      01000852H   CODE     ---       ?C?LLDCODE0
      010007F8H   CODE     ---       ?C?LLDIDATA
      0100082CH   CODE     ---       ?C?LLDIDATA0
      01000732H   CODE     ---       ?C?LLDOPTR
      01000786H   CODE     ---       ?C?LLDOPTR0
      01000810H   CODE     ---       ?C?LLDPDATA
      01000845H   CODE     ---       ?C?LLDPDATA0
      01000804H   CODE     ---       ?C?LLDXDATA
      01000839H   CODE     ---       ?C?LLDXDATA0
      01000607H   CODE     ---       ?C?LMUL
      01000724H   CODE     ---       ?C?LNEG
      010007B6H   CODE     ---       ?C?LSTIDATA
      01000762H   CODE     ---       ?C?LSTOPTR
      0100086EH   CODE     ---       ?C?LSTPDATA
LX51 LINKER/LOCATER V4.66.97.0                                                        06/16/2023  12:31:30  PAGE 10


      01000862H   CODE     ---       ?C?LSTXDATA
      010007C2H   CODE     ---       ?C?PLDIIDATA
      01000692H   CODE     ---       ?C?ULDIV
      00000000H   NUMBER   ---       ?C?XDATASEG
      0100123AH   CODE     ---       ?C_START
      01000000H   CODE     ---       ?C_STARTUP
      01000F18H   CODE     ---       _al_float_buffer_sort
*DEL*:00000000H   CODE     ---       _Delay_50us
      01001301H   CODE     ---       _Delay_ms
      0100127CH   CODE     ---       _delay_us
      0100114FH   CODE     ---       _GXHTC3_Read_Byte
      01000CE9H   CODE     ---       _GXHTC3_read_result
      01001101H   CODE     ---       _GXHTC3_Send_Byte
      010008DCH   CODE     ---       _PRINTF
      01000036H   CODE     ---       _PUTCHAR
*DEL*:00000000H   CODE     ---       _RTC_WriteDay
*DEL*:00000000H   CODE     ---       _RTC_WriteHour
*DEL*:00000000H   CODE     ---       _RTC_WriteMinute
*DEL*:00000000H   CODE     ---       _RTC_WriteSecond
*DEL*:00000000H   CODE     ---       _RTC_WriteWeek
      010008D6H   CODE     ---       _SPRINTF
*DEL*:00000000H   CODE     ---       _Sys_Clk_Set_PLL
      010010A9H   CODE     ---       _Uart1_Initial
      0100103CH   CODE     ---       _Uart1_PutChar
      010011DBH   CODE     ---       _uart_printf
      01001215H   CODE     ---       _UartPutStr
      01000003H   CODE     ---       _VSPRINTF
*SFR* 000000D0H.6 DATA     BIT       AC
*SFR* 000000E0H   DATA     BYTE      ACC
      0200808DH   XDATA    BYTE      ACPDHH
      0200808CH   XDATA    BYTE      ACPDHL
      0200808BH   XDATA    BYTE      ACPDLH
      0200808AH   XDATA    BYTE      ACPDLL
*DEL*:00000000H   CODE     ---       ADC_init
      02008089H   XDATA    BYTE      ADCALH
      02008088H   XDATA    BYTE      ADCALL
*SFR* 000000BDH   DATA     BYTE      ADCDH
*SFR* 000000BCH   DATA     BYTE      ADCDL
*SFR* 000000BBH   DATA     BYTE      ADCFGH
*SFR* 000000BAH   DATA     BYTE      ADCFGL
*SFR* 000000B9H   DATA     BYTE      ADCON
      00000021H.2 BIT      BIT       AlarmEvFlag
*SFR* 000000C6H   DATA     BYTE      ATKMH
*SFR* 000000C5H   DATA     BYTE      ATKML
      02008093H   XDATA    BYTE      ATKNH
      02008092H   XDATA    BYTE      ATKNL
*SFR* 000000F0H   DATA     BYTE      B
      02008080H   XDATA    BYTE      CKCON
      02008082H   XDATA    BYTE      CKDIV
*SFR* 000000BFH   DATA     BYTE      CKMIF
*SFR* 000000BEH   DATA     BYTE      CKMON
      02008081H   XDATA    BYTE      CKSEL
      02008048H   XDATA    BYTE      CP0CON
      02008049H   XDATA    BYTE      CP1CON
      0200804AH   XDATA    BYTE      CP2CON
      0200804BH   XDATA    BYTE      CP3CON
      0200804CH   XDATA    BYTE      CPCKS
      0200804DH   XDATA    BYTE      CPSTA
      0200804EH   XDATA    BYTE      CPVTC
      0200805CH   XDATA    BYTE      CTMCNTH
      0200805BH   XDATA    BYTE      CTMCNTL
      02008058H   XDATA    BYTE      CTMCON
      0200805AH   XDATA    BYTE      CTMVTHH
      02008059H   XDATA    BYTE      CTMVTHL
*SFR* 000000D0H.7 DATA     BIT       CY
LX51 LINKER/LOCATER V4.66.97.0                                                        06/16/2023  12:31:30  PAGE 11


*SFR* 00000083H   DATA     BYTE      DP0H
*SFR* 00000082H   DATA     BYTE      DP0L
*SFR* 00000085H   DATA     BYTE      DP1H
*SFR* 00000084H   DATA     BYTE      DP1L
*SFR* 000000D0H.1 DATA     BIT       DPS
*SFR* 000000A8H.7 DATA     BIT       EA
*SFR* 000000FBH   DATA     BYTE      EPCON
*SFR* 000000F9H   DATA     BYTE      EPIE
*SFR* 000000FAH   DATA     BYTE      EPIF
*SFR* 000000A8H.4 DATA     BIT       ES0
*SFR* 000000A8H.6 DATA     BIT       ES1
*SFR* 000000A8H.1 DATA     BIT       ET0
*SFR* 000000A8H.3 DATA     BIT       ET1
*SFR* 000000A8H.5 DATA     BIT       ET2
*SFR* 000000A8H.0 DATA     BIT       EX0
*SFR* 000000A8H.2 DATA     BIT       EX1
*SFR* 000000E8H   DATA     BYTE      EXIE
*SFR* 000000F8H   DATA     BYTE      EXIP
*SFR* 000000D0H.5 DATA     BIT       F0
      0200FC01H   XDATA    BYTE      FSCMD
      0200FC02H   XDATA    BYTE      FSDAT
      02008051H   XDATA    BYTE      FT0SH
      02008050H   XDATA    BYTE      FT0SL
      02008053H   XDATA    BYTE      FT1SH
      02008052H   XDATA    BYTE      FT1SL
      02008055H   XDATA    BYTE      FT2SH
      02008054H   XDATA    BYTE      FT2SL
      02008057H   XDATA    BYTE      FT3SH
      02008056H   XDATA    BYTE      FT3SL
      0200811EH   XDATA    BYTE      FTCTL
      01000E58H   CODE     ---       getgxth30
*DEL*:00000000H   CODE     ---       GPIO_init
      010012B4H   CODE     ---       GXHTC3_Ack
      0000000CH   DATA     FLOAT     GXHTC3_humi
      00000014H   DATA     FLOAT     GXHTC3_Humidity
      01001319H   CODE     ---       GXHTC3_INIT
      010012CEH   CODE     ---       GXHTC3_NAck
      0100132FH   CODE     ---       GXHTC3_SDA_IN
      01001328H   CODE     ---       GXHTC3_SDA_OUT
      0100129AH   CODE     ---       GXHTC3_StarT
      010012E8H   CODE     ---       GXHTC3_StoP
      00000010H   DATA     FLOAT     GXHTC3_temp
      00000008H   DATA     FLOAT     GXHTC3_Temperature
      0100119AH   CODE     ---       GXHTC3_Wait_Ack
      00000021H.1 BIT      BIT       HalfSecFlag
      02008068H   XDATA    BYTE      HDCT0
      02008069H   XDATA    BYTE      HDCT1
      02008072H   XDATA    BYTE      HDCT10
      02008073H   XDATA    BYTE      HDCT11
      0200806AH   XDATA    BYTE      HDCT2
      0200806BH   XDATA    BYTE      HDCT3
      0200806CH   XDATA    BYTE      HDCT4
      0200806DH   XDATA    BYTE      HDCT5
      0200806EH   XDATA    BYTE      HDCT6
      0200806FH   XDATA    BYTE      HDCT7
      02008070H   XDATA    BYTE      HDCT8
      02008071H   XDATA    BYTE      HDCT9
*SFR* 000000AFH   DATA     BYTE      HVTH
*DEL*:00000000H   CODE     ---       I2C_init
*SFR* 000000B3H   DATA     BYTE      I2CADM
*SFR* 000000B2H   DATA     BYTE      I2CADR
*SFR* 000000B4H   DATA     BYTE      I2CCCR
*SFR* 000000B1H   DATA     BYTE      I2CCON
*SFR* 000000B5H   DATA     BYTE      I2CDAT
*SFR* 000000B7H   DATA     BYTE      I2CFLG
LX51 LINKER/LOCATER V4.66.97.0                                                        06/16/2023  12:31:30  PAGE 12


      02008101H   XDATA    BYTE      I2CIOS
*SFR* 000000B6H   DATA     BYTE      I2CSTA
*SFR* 000000FDH   DATA     BYTE      IDLSTH
*SFR* 000000FCH   DATA     BYTE      IDLSTL
*SFR* 000000A8H   DATA     BYTE      IE
*SFR* 00000088H.1 DATA     BIT       IE0
*SFR* 00000088H.3 DATA     BIT       IE1
      02008084H   XDATA    BYTE      IHCFGH
      02008083H   XDATA    BYTE      IHCFGL
      02008086H   XDATA    BYTE      ILCFGH
      02008085H   XDATA    BYTE      ILCFGL
*SFR* 000000F7H   DATA     BYTE      INDEX
*SFR* 000000E8H.0 DATA     BIT       INT2EN
*SFR* 000000E8H.1 DATA     BIT       INT3EN
*SFR* 000000E8H.2 DATA     BIT       INT4EN
*SFR* 000000E8H.3 DATA     BIT       INT5EN
*SFR* 000000E8H.4 DATA     BIT       INT6EN
*SFR* 000000E8H.5 DATA     BIT       INT7EN
*SFR* 000000E8H.6 DATA     BIT       INT8EN
*SFR* 000000E8H.7 DATA     BIT       INT9EN
*SFR* 000000B8H   DATA     BYTE      IP
*SFR* 00000088H.0 DATA     BIT       IT0
*SFR* 0000008FH   DATA     BYTE      IT0CON
*SFR* 00000088H.2 DATA     BIT       IT1
*SFR* 0000008EH   DATA     BYTE      IT1CON
*DEL*:00000000H   CODE     ---       Lcd_init
*DEL*:00000000H   CODE     ---       LCD_Off
      00000022H   DATA     ---       lcd_ram
      0200FC03H   XDATA    BYTE      LOCK
*SFR* 000000EFH   DATA     BYTE      LVDCON
      02008117H   XDATA    BYTE      LXCAD
*SFR* 000000E2H   DATA     BYTE      LXCFG
*SFR* 000000E1H   DATA     BYTE      LXCON
*SFR* 000000E3H   DATA     BYTE      LXDAT
*SFR* 000000E5H   DATA     BYTE      LXDIVH
*SFR* 000000E4H   DATA     BYTE      LXDIVL
      0100123AH   CODE     ---       main
*SFR* 000000E6H   DATA     BYTE      MDUCON
*SFR* 000000E7H   DATA     BYTE      MDUDAT
      0200FC00H   XDATA    BYTE      MECON
      02008064H   XDATA    BYTE      MFPCON
      02008063H   XDATA    BYTE      MHLCON
      02008061H   XDATA    BYTE      MOTCFG
      02008065H   XDATA    BYTE      MOTCMD
      02008060H   XDATA    BYTE      MOTCON
      02008067H   XDATA    BYTE      MOTIF
      02008074H   XDATA    BYTE      MOTPLC
      02008062H   XDATA    BYTE      MTGCON
      02008066H   XDATA    BYTE      MTGDL
      02008040H   XDATA    BYTE      OPACON
      02008041H   XDATA    BYTE      OPBCON
      02008042H   XDATA    BYTE      OSTRIM
*SFR* 000000D0H.2 DATA     BIT       OV
*SFR* 000000D0H.0 DATA     BIT       P
*SFR* 00000080H   DATA     BYTE      P0
*SFR* 00000080H.0 DATA     BIT       P00
      02008120H   XDATA    BYTE      P00C
      02008000H   XDATA    BYTE      P00F
*SFR* 00000080H.1 DATA     BIT       P01
      02008121H   XDATA    BYTE      P01C
      02008001H   XDATA    BYTE      P01F
*SFR* 00000080H.2 DATA     BIT       P02
      02008122H   XDATA    BYTE      P02C
      02008002H   XDATA    BYTE      P02F
*SFR* 00000080H.3 DATA     BIT       P03
LX51 LINKER/LOCATER V4.66.97.0                                                        06/16/2023  12:31:30  PAGE 13


      02008123H   XDATA    BYTE      P03C
      02008003H   XDATA    BYTE      P03F
*SFR* 00000080H.4 DATA     BIT       P04
      02008124H   XDATA    BYTE      P04C
      02008004H   XDATA    BYTE      P04F
*SFR* 00000080H.5 DATA     BIT       P05
      02008125H   XDATA    BYTE      P05C
      02008005H   XDATA    BYTE      P05F
*SFR* 00000080H.6 DATA     BIT       P06
      02008126H   XDATA    BYTE      P06C
      02008006H   XDATA    BYTE      P06F
*SFR* 00000080H.7 DATA     BIT       P07
      02008127H   XDATA    BYTE      P07C
      02008007H   XDATA    BYTE      P07F
*SFR* 00000090H   DATA     BYTE      P1
*SFR* 00000090H.0 DATA     BIT       P10
      02008128H   XDATA    BYTE      P10C
      02008008H   XDATA    BYTE      P10F
*SFR* 00000090H.1 DATA     BIT       P11
      02008129H   XDATA    BYTE      P11C
      02008009H   XDATA    BYTE      P11F
*SFR* 00000090H.2 DATA     BIT       P12
      0200812AH   XDATA    BYTE      P12C
      0200800AH   XDATA    BYTE      P12F
*SFR* 00000090H.3 DATA     BIT       P13
      0200812BH   XDATA    BYTE      P13C
      0200800BH   XDATA    BYTE      P13F
*SFR* 00000090H.4 DATA     BIT       P14
      0200812CH   XDATA    BYTE      P14C
      0200800CH   XDATA    BYTE      P14F
*SFR* 00000090H.5 DATA     BIT       P15
      0200812DH   XDATA    BYTE      P15C
      0200800DH   XDATA    BYTE      P15F
*SFR* 00000090H.6 DATA     BIT       P16
      0200812EH   XDATA    BYTE      P16C
      0200800EH   XDATA    BYTE      P16F
*SFR* 00000090H.7 DATA     BIT       P17
      0200812FH   XDATA    BYTE      P17C
      0200800FH   XDATA    BYTE      P17F
*SFR* 000000A0H   DATA     BYTE      P2
*SFR* 000000A0H.0 DATA     BIT       P20
      02008130H   XDATA    BYTE      P20C
      02008010H   XDATA    BYTE      P20F
*SFR* 000000A0H.1 DATA     BIT       P21
      02008131H   XDATA    BYTE      P21C
      02008011H   XDATA    BYTE      P21F
*SFR* 000000A0H.2 DATA     BIT       P22
      02008132H   XDATA    BYTE      P22C
      02008012H   XDATA    BYTE      P22F
*SFR* 000000A0H.3 DATA     BIT       P23
      02008133H   XDATA    BYTE      P23C
      02008013H   XDATA    BYTE      P23F
*SFR* 000000A0H.4 DATA     BIT       P24
      02008134H   XDATA    BYTE      P24C
      02008014H   XDATA    BYTE      P24F
*SFR* 000000A0H.5 DATA     BIT       P25
      02008135H   XDATA    BYTE      P25C
      02008015H   XDATA    BYTE      P25F
*SFR* 000000A0H.6 DATA     BIT       P26
      02008136H   XDATA    BYTE      P26C
      02008016H   XDATA    BYTE      P26F
*SFR* 000000A0H.7 DATA     BIT       P27
      02008137H   XDATA    BYTE      P27C
      02008017H   XDATA    BYTE      P27F
*SFR* 000000B0H   DATA     BYTE      P3
LX51 LINKER/LOCATER V4.66.97.0                                                        06/16/2023  12:31:30  PAGE 14


*SFR* 000000B0H.0 DATA     BIT       P30
      02008138H   XDATA    BYTE      P30C
      02008018H   XDATA    BYTE      P30F
*SFR* 000000B0H.1 DATA     BIT       P31
      02008139H   XDATA    BYTE      P31C
      02008019H   XDATA    BYTE      P31F
*SFR* 000000B0H.2 DATA     BIT       P32
      0200813AH   XDATA    BYTE      P32C
      0200801AH   XDATA    BYTE      P32F
*SFR* 000000B0H.3 DATA     BIT       P33
      0200813BH   XDATA    BYTE      P33C
      0200801BH   XDATA    BYTE      P33F
*SFR* 000000B0H.4 DATA     BIT       P34
      0200813CH   XDATA    BYTE      P34C
      0200801CH   XDATA    BYTE      P34F
*SFR* 000000B0H.5 DATA     BIT       P35
      0200813DH   XDATA    BYTE      P35C
      0200801DH   XDATA    BYTE      P35F
*SFR* 000000B0H.6 DATA     BIT       P36
      0200813EH   XDATA    BYTE      P36C
      0200801EH   XDATA    BYTE      P36F
*SFR* 000000B0H.7 DATA     BIT       P37
      0200813FH   XDATA    BYTE      P37C
      0200801FH   XDATA    BYTE      P37F
*SFR* 000000C0H   DATA     BYTE      P4
*SFR* 000000C0H.0 DATA     BIT       P40
      02008140H   XDATA    BYTE      P40C
      02008020H   XDATA    BYTE      P40F
*SFR* 000000C0H.1 DATA     BIT       P41
      02008141H   XDATA    BYTE      P41C
      02008021H   XDATA    BYTE      P41F
*SFR* 000000C0H.2 DATA     BIT       P42
      02008142H   XDATA    BYTE      P42C
      02008022H   XDATA    BYTE      P42F
*SFR* 000000C0H.3 DATA     BIT       P43
      02008143H   XDATA    BYTE      P43C
      02008023H   XDATA    BYTE      P43F
*SFR* 000000C0H.4 DATA     BIT       P44
      02008144H   XDATA    BYTE      P44C
      02008024H   XDATA    BYTE      P44F
*SFR* 000000C0H.5 DATA     BIT       P45
      02008145H   XDATA    BYTE      P45C
      02008025H   XDATA    BYTE      P45F
*SFR* 000000C0H.6 DATA     BIT       P46
      02008146H   XDATA    BYTE      P46C
      02008026H   XDATA    BYTE      P46F
*SFR* 000000C0H.7 DATA     BIT       P47
      02008147H   XDATA    BYTE      P47C
      02008027H   XDATA    BYTE      P47F
*SFR* 000000D8H   DATA     BYTE      P5
*SFR* 000000D8H.0 DATA     BIT       P50
      02008148H   XDATA    BYTE      P50C
      02008028H   XDATA    BYTE      P50F
*SFR* 000000D8H.1 DATA     BIT       P51
      02008149H   XDATA    BYTE      P51C
      02008029H   XDATA    BYTE      P51F
*SFR* 000000D8H.2 DATA     BIT       P52
      0200814AH   XDATA    BYTE      P52C
      0200802AH   XDATA    BYTE      P52F
*SFR* 000000D8H.3 DATA     BIT       P53
      0200814BH   XDATA    BYTE      P53C
      0200802BH   XDATA    BYTE      P53F
*SFR* 000000D8H.4 DATA     BIT       P54
      0200814CH   XDATA    BYTE      P54C
      0200802CH   XDATA    BYTE      P54F
LX51 LINKER/LOCATER V4.66.97.0                                                        06/16/2023  12:31:30  PAGE 15


*SFR* 000000D8H.5 DATA     BIT       P55
      0200814DH   XDATA    BYTE      P55C
      0200802DH   XDATA    BYTE      P55F
*SFR* 000000D8H.6 DATA     BIT       P56
      0200814EH   XDATA    BYTE      P56C
      0200802EH   XDATA    BYTE      P56F
*SFR* 000000D8H.7 DATA     BIT       P57
      0200814FH   XDATA    BYTE      P57C
      0200802FH   XDATA    BYTE      P57F
*SFR* 000000A9H   DATA     BYTE      P6
      02008150H   XDATA    BYTE      P60C
      02008030H   XDATA    BYTE      P60F
      02008151H   XDATA    BYTE      P61C
      02008031H   XDATA    BYTE      P61F
      02008152H   XDATA    BYTE      P62C
      02008032H   XDATA    BYTE      P62F
      02008153H   XDATA    BYTE      P63C
      02008033H   XDATA    BYTE      P63F
      02008154H   XDATA    BYTE      P64C
      02008034H   XDATA    BYTE      P64F
      02008155H   XDATA    BYTE      P65C
      02008035H   XDATA    BYTE      P65F
      02008156H   XDATA    BYTE      P66C
      02008036H   XDATA    BYTE      P66F
      02008157H   XDATA    BYTE      P67C
      02008037H   XDATA    BYTE      P67F
*SFR* 000000D9H   DATA     BYTE      P7
      02008158H   XDATA    BYTE      P70C
      02008038H   XDATA    BYTE      P70F
      02008159H   XDATA    BYTE      P71C
      02008039H   XDATA    BYTE      P71F
      0200815AH   XDATA    BYTE      P72C
      0200803AH   XDATA    BYTE      P72F
      0200815BH   XDATA    BYTE      P73C
      0200803BH   XDATA    BYTE      P73F
      0200815CH   XDATA    BYTE      P74C
      0200803CH   XDATA    BYTE      P74F
      0200815DH   XDATA    BYTE      P75C
      0200803DH   XDATA    BYTE      P75F
      0200FC04H   XDATA    BYTE      PADRD
*SFR* 00000087H   DATA     BYTE      PCON
*SFR* 000000AEH   DATA     BYTE      PLLCON
*SFR* 000000B8H.4 DATA     BIT       PS0
*SFR* 000000B8H.6 DATA     BIT       PS1
*SFR* 000000D0H   DATA     BYTE      PSW
*SFR* 000000B8H.1 DATA     BIT       PT0
*SFR* 000000B8H.3 DATA     BIT       PT1
*SFR* 000000B8H.5 DATA     BIT       PT2
      0200FC06H   XDATA    BYTE      PTSH
      0200FC05H   XDATA    BYTE      PTSL
*SFR* 00000086H   DATA     BYTE      PWCON
*DEL*:00000000H   CODE     ---       PWM6_init
*SFR* 000000D4H   DATA     BYTE      PWMAIF
*SFR* 000000D5H   DATA     BYTE      PWMBIF
*SFR* 000000DEH   DATA     BYTE      PWMCFG
*SFR* 000000D6H   DATA     BYTE      PWMCIF
*SFR* 000000DCH   DATA     BYTE      PWMCMAX
*SFR* 000000DDH   DATA     BYTE      PWMCON
*SFR* 000000D7H   DATA     BYTE      PWMDIF
*SFR* 000000D1H   DATA     BYTE      PWMDIVH
*SFR* 000000DFH   DATA     BYTE      PWMDIVL
*SFR* 000000D3H   DATA     BYTE      PWMDUTH
*SFR* 000000D2H   DATA     BYTE      PWMDUTL
*SFR* 000000DAH   DATA     BYTE      PWMEN
*SFR* 000000DBH   DATA     BYTE      PWMUPD
LX51 LINKER/LOCATER V4.66.97.0                                                        06/16/2023  12:31:30  PAGE 16


*SFR* 000000B8H.0 DATA     BIT       PX0
*SFR* 000000B8H.2 DATA     BIT       PX1
*SFR* 00000098H.2 DATA     BIT       RB8
*SFR* 00000091H   DATA     BYTE      RCCON
*SFR* 0000009FH   DATA     BYTE      RCMSHH
*SFR* 0000009EH   DATA     BYTE      RCMSHL
*SFR* 00000097H   DATA     BYTE      RCMSLH
*SFR* 00000096H   DATA     BYTE      RCMSLL
*SFR* 00000095H   DATA     BYTE      RCTAGH
*SFR* 00000094H   DATA     BYTE      RCTAGL
*SFR* 00000098H.4 DATA     BIT       REN
      0200FC07H   XDATA    BYTE      REPSET
*SFR* 00000098H.0 DATA     BIT       RI0
*SFR* 000000D0H.3 DATA     BIT       RS0
*SFR* 000000D0H.4 DATA     BIT       RS1
*SFR* 000000ECH   DATA     BYTE      RTAH
*SFR* 000000EBH   DATA     BYTE      RTAM
*SFR* 000000EAH   DATA     BYTE      RTAS
*DEL*:00000000H   CODE     ---       RTC_init
      0100125BH   CODE     ---       RTC_ISR
*SFR* 000000F6H   DATA     BYTE      RTCDH
*SFR* 000000F5H   DATA     BYTE      RTCDL
*SFR* 000000F4H   DATA     BYTE      RTCH
*SFR* 000000EEH   DATA     BYTE      RTCIF
*SFR* 000000F3H   DATA     BYTE      RTCM
*SFR* 000000F1H   DATA     BYTE      RTCON
*SFR* 000000F2H   DATA     BYTE      RTCS
*SFR* 000000E9H   DATA     BYTE      RTCSS
*SFR* 000000EDH   DATA     BYTE      RTMSS
*SFR* 00000099H   DATA     BYTE      S0BUF
*SFR* 00000098H   DATA     BYTE      S0CON
*SFR* 0000009BH   DATA     BYTE      S1BUF
*SFR* 0000009AH   DATA     BYTE      S1CON
*SFR* 0000009DH   DATA     BYTE      S1RELH
*SFR* 0000009CH   DATA     BYTE      S1RELL
*SFR* 000000A2H   DATA     BYTE      S2BUF
*SFR* 000000A1H   DATA     BYTE      S2CON
*SFR* 000000A4H   DATA     BYTE      S2RELH
*SFR* 000000A3H   DATA     BYTE      S2RELL
*SFR* 00000098H.7 DATA     BIT       SM0
*SFR* 00000098H.6 DATA     BIT       SM1
*SFR* 00000098H.5 DATA     BIT       SM2
      02008078H   XDATA    BYTE      SMCON
      0200807CH   XDATA    BYTE      SMDATH
      0200807BH   XDATA    BYTE      SMDATL
      0200807AH   XDATA    BYTE      SMDIV
      02008079H   XDATA    BYTE      SMSTA
      0200807EH   XDATA    BYTE      SMVTHH
      0200807DH   XDATA    BYTE      SMVTHL
*SFR* 00000081H   DATA     BYTE      SP
*SFR* 000000A5H   DATA     BYTE      SPCON
*SFR* 000000A6H   DATA     BYTE      SPDAT
      02008100H   XDATA    BYTE      SPMAX
*SFR* 000000A7H   DATA     BYTE      SPSTA
*SFR* 000000FFH   DATA     BYTE      STPSTH
*SFR* 000000FEH   DATA     BYTE      STPSTL
*DEL*:00000000H   CODE     ---       Sys_Clk_Set_IRCH
*DEL*:00000000H   CODE     ---       Sys_Clk_Set_IRCL
*DEL*:00000000H   CODE     ---       Sys_Clk_Set_TFRC
*DEL*:00000000H   CODE     ---       Sys_Clk_Set_XOSCL
*SFR* 000000CBH   DATA     BYTE      T2CH
*SFR* 000000CAH   DATA     BYTE      T2CL
*SFR* 000000C8H   DATA     BYTE      T2CON
*SFR* 000000C8H.3 DATA     BIT       T2IE
*SFR* 000000C9H   DATA     BYTE      T2MOD
LX51 LINKER/LOCATER V4.66.97.0                                                        06/16/2023  12:31:30  PAGE 17


*SFR* 000000C8H.0 DATA     BIT       T2P0
*SFR* 000000C8H.1 DATA     BIT       T2P1
*SFR* 000000C8H.4 DATA     BIT       T2R0
*SFR* 000000C8H.5 DATA     BIT       T2R1
*SFR* 00000098H.3 DATA     BIT       TB8
*SFR* 00000088H   DATA     BYTE      TCON
*SFR* 00000088H.5 DATA     BIT       TF0
*SFR* 00000088H.7 DATA     BIT       TF1
*SFR* 000000C8H.7 DATA     BIT       TF2
      02008087H   XDATA    BYTE      TFCFG
*SFR* 0000008CH   DATA     BYTE      TH0
*SFR* 0000008DH   DATA     BYTE      TH1
*SFR* 000000CDH   DATA     BYTE      TH2
*SFR* 00000098H.1 DATA     BIT       TI0
*SFR* 000000C2H   DATA     BYTE      TKCFG
*SFR* 000000C4H   DATA     BYTE      TKCHS
*SFR* 000000C1H   DATA     BYTE      TKCON
*SFR* 000000C7H   DATA     BYTE      TKIF
      02008090H   XDATA    BYTE      TKMAXF
      02008091H   XDATA    BYTE      TKMINF
*SFR* 000000CFH   DATA     BYTE      TKMSH
*SFR* 000000CEH   DATA     BYTE      TKMSL
*SFR* 000000C3H   DATA     BYTE      TKMTS
      02008103H   XDATA    BYTE      TKPWC
*SFR* 0000008AH   DATA     BYTE      TL0
*SFR* 0000008BH   DATA     BYTE      TL1
*SFR* 000000CCH   DATA     BYTE      TL2
      0200810AH   XDATA    BYTE      TLCKS
      0200810FH   XDATA    BYTE      TLCNTD
      0200810CH   XDATA    BYTE      TLCNTKH
      0200810BH   XDATA    BYTE      TLCNTKL
      0200810EH   XDATA    BYTE      TLCNTLH
      0200810DH   XDATA    BYTE      TLCNTLL
      02008110H   XDATA    BYTE      TLCOMS
      02008108H   XDATA    BYTE      TLCON
      02008107H   XDATA    BYTE      TLDAT
      02008106H   XDATA    BYTE      TLEN
      02008109H   XDATA    BYTE      TLFLG
*SFR* 00000089H   DATA     BYTE      TMOD
      0200811FH   XDATA    BYTE      TPCTL
*SFR* 00000088H.4 DATA     BIT       TR0
*SFR* 00000088H.6 DATA     BIT       TR1
*SFR* 000000C8H.6 DATA     BIT       TR2
      01000FC2H   CODE     ---       UART1_ISR
      02000100H   XDATA    ---       uart1_rev
      02000102H   XDATA    ---       uart1_rx_buf
      0200017AH   XDATA    ---       uart1_send
      02000166H   XDATA    ---       uart1_tx_buf
      00000021H.3 BIT      BIT       uart1_tx_flag
*SFR* 000000C8H.2 DATA     BIT       UCKS
*SFR* 00000093H   DATA     BYTE      VCKDH
*SFR* 00000092H   DATA     BYTE      VCKDL
      00000018H   DATA     FLOAT     VDD_Voltage
*SFR* 000000AAH   DATA     BYTE      WDCON
*SFR* 000000ABH   DATA     BYTE      WDFLG
*SFR* 000000ADH   DATA     BYTE      WDVTHH
*SFR* 000000ACH   DATA     BYTE      WDVTHL
*DEL*:00000000H   CODE     ---       Zigbee_GPIO_init



IGNORED SEGMENTS:
   _DATA_GROUP_


LX51 LINKER/LOCATER V4.66.97.0                                                        06/16/2023  12:31:30  PAGE 18



SYMBOL TABLE OF MODULE:  .\output\CA51F252L3-ZigB (UART)

      VALUE       REP       CLASS    TYPE      SYMBOL NAME
      ====================================================
      ---         MODULE    ---      ---       UART
      0200017AH   PUBLIC    XDATA    ---       uart1_send
      02000166H   PUBLIC    XDATA    ---       uart1_tx_buf
      02000102H   PUBLIC    XDATA    ---       uart1_rx_buf
      00000021H.3 PUBLIC    BIT      BIT       uart1_tx_flag
      02000100H   PUBLIC    XDATA    ---       uart1_rev
      0000002AH   PUBLIC    DATA     BYTE      ?_uart_printf?BYTE
      010011DBH   PUBLIC    CODE     ---       _uart_printf
      01001215H   PUBLIC    CODE     ---       _UartPutStr
      01000FC2H   PUBLIC    CODE     ---       UART1_ISR
      0100103CH   PUBLIC    CODE     ---       _Uart1_PutChar
      010010A9H   PUBLIC    CODE     ---       _Uart1_Initial
      000000E3H   SFRSYM    DATA     BYTE      LXDAT
      000000C4H   SFRSYM    DATA     BYTE      TKCHS
      00000080H   SFRSYM    DATA     BYTE      P0
      000000C1H   SFRSYM    DATA     BYTE      TKCON
      00000090H   SFRSYM    DATA     BYTE      P1
      000000A0H   SFRSYM    DATA     BYTE      P2
      000000B0H   SFRSYM    DATA     BYTE      P3
      000000D0H.6 SFRSYM    DATA     BIT       AC
      000000C0H   SFRSYM    DATA     BYTE      P4
      000000D8H   SFRSYM    DATA     BYTE      P5
      000000A5H   SFRSYM    DATA     BYTE      SPCON
      000000A8H.7 SFRSYM    DATA     BIT       EA
      000000E1H   SFRSYM    DATA     BYTE      LXCON
      000000A9H   SFRSYM    DATA     BYTE      P6
      000000C8H.0 SFRSYM    DATA     BIT       T2P0
      000000D9H   SFRSYM    DATA     BYTE      P7
      000000C8H.1 SFRSYM    DATA     BIT       T2P1
      000000F1H   SFRSYM    DATA     BYTE      RTCON
      000000C8H.4 SFRSYM    DATA     BIT       T2R0
      000000DAH   SFRSYM    DATA     BYTE      PWMEN
      000000CFH   SFRSYM    DATA     BYTE      TKMSH
      00000086H   SFRSYM    DATA     BYTE      PWCON
      000000C8H.5 SFRSYM    DATA     BIT       T2R1
      000000CEH   SFRSYM    DATA     BYTE      TKMSL
      000000A7H   SFRSYM    DATA     BYTE      SPSTA
      00000083H   SFRSYM    DATA     BYTE      DP0H
      000000A8H   SFRSYM    DATA     BYTE      IE
      00000085H   SFRSYM    DATA     BYTE      DP1H
      000000E9H   SFRSYM    DATA     BYTE      RTCSS
      00000082H   SFRSYM    DATA     BYTE      DP0L
      000000CBH   SFRSYM    DATA     BYTE      T2CH
      000000B3H   SFRSYM    DATA     BYTE      I2CADM
      00000084H   SFRSYM    DATA     BYTE      DP1L
      000000C8H.3 SFRSYM    DATA     BIT       T2IE
      000000C3H   SFRSYM    DATA     BYTE      TKMTS
      000000CAH   SFRSYM    DATA     BYTE      T2CL
      000000B2H   SFRSYM    DATA     BYTE      I2CADR
      000000B4H   SFRSYM    DATA     BYTE      I2CCCR
      000000B8H   SFRSYM    DATA     BYTE      IP
      000000B7H   SFRSYM    DATA     BYTE      I2CFLG
      000000B5H   SFRSYM    DATA     BYTE      I2CDAT
      000000EDH   SFRSYM    DATA     BYTE      RTMSS
      000000D0H.7 SFRSYM    DATA     BIT       CY
      000000BBH   SFRSYM    DATA     BYTE      ADCFGH
      000000DCH   SFRSYM    DATA     BYTE      PWMCMAX
      000000B1H   SFRSYM    DATA     BYTE      I2CCON
      000000D1H   SFRSYM    DATA     BYTE      PWMDIVH
      000000BAH   SFRSYM    DATA     BYTE      ADCFGL
LX51 LINKER/LOCATER V4.66.97.0                                                        06/16/2023  12:31:30  PAGE 19


      00000081H   SFRSYM    DATA     BYTE      SP
      000000F9H   SFRSYM    DATA     BYTE      EPIE
      000000D0H.2 SFRSYM    DATA     BIT       OV
      000000FAH   SFRSYM    DATA     BYTE      EPIF
      000000DFH   SFRSYM    DATA     BYTE      PWMDIVL
      000000B6H   SFRSYM    DATA     BYTE      I2CSTA
      000000E8H   SFRSYM    DATA     BYTE      EXIE
      000000D3H   SFRSYM    DATA     BYTE      PWMDUTH
      000000C7H   SFRSYM    DATA     BYTE      TKIF
      0000008FH   SFRSYM    DATA     BYTE      IT0CON
      00000080H.0 SFRSYM    DATA     BIT       P00
      000000ECH   SFRSYM    DATA     BYTE      RTAH
      000000D2H   SFRSYM    DATA     BYTE      PWMDUTL
      0000008EH   SFRSYM    DATA     BYTE      IT1CON
      00000090H.0 SFRSYM    DATA     BIT       P10
      00000080H.1 SFRSYM    DATA     BIT       P01
      0000009DH   SFRSYM    DATA     BYTE      S1RELH
      00000087H   SFRSYM    DATA     BYTE      PCON
      000000A0H.0 SFRSYM    DATA     BIT       P20
      00000090H.1 SFRSYM    DATA     BIT       P11
      00000080H.2 SFRSYM    DATA     BIT       P02
      000000E8H.0 SFRSYM    DATA     BIT       INT2EN
      000000F4H   SFRSYM    DATA     BYTE      RTCH
      000000A4H   SFRSYM    DATA     BYTE      S2RELH
      000000B0H.0 SFRSYM    DATA     BIT       P30
      000000A0H.1 SFRSYM    DATA     BIT       P21
      00000090H.2 SFRSYM    DATA     BIT       P12
      00000080H.3 SFRSYM    DATA     BIT       P03
      000000E8H.1 SFRSYM    DATA     BIT       INT3EN
      000000C0H.0 SFRSYM    DATA     BIT       P40
      000000B0H.1 SFRSYM    DATA     BIT       P31
      000000A0H.2 SFRSYM    DATA     BIT       P22
      00000090H.3 SFRSYM    DATA     BIT       P13
      00000080H.4 SFRSYM    DATA     BIT       P04
      000000E8H.2 SFRSYM    DATA     BIT       INT4EN
      000000D8H.0 SFRSYM    DATA     BIT       P50
      000000C0H.1 SFRSYM    DATA     BIT       P41
      000000B0H.2 SFRSYM    DATA     BIT       P32
      000000A0H.3 SFRSYM    DATA     BIT       P23
      00000090H.4 SFRSYM    DATA     BIT       P14
      00000080H.5 SFRSYM    DATA     BIT       P05
      000000E8H.3 SFRSYM    DATA     BIT       INT5EN
      000000EBH   SFRSYM    DATA     BYTE      RTAM
      0000009CH   SFRSYM    DATA     BYTE      S1RELL
      00000089H   SFRSYM    DATA     BYTE      TMOD
      00000088H   SFRSYM    DATA     BYTE      TCON
      000000D8H.1 SFRSYM    DATA     BIT       P51
      000000C0H.2 SFRSYM    DATA     BIT       P42
      000000B0H.3 SFRSYM    DATA     BIT       P33
      000000A0H.4 SFRSYM    DATA     BIT       P24
      00000090H.5 SFRSYM    DATA     BIT       P15
      00000080H.6 SFRSYM    DATA     BIT       P06
      000000E8H.4 SFRSYM    DATA     BIT       INT6EN
      000000A3H   SFRSYM    DATA     BYTE      S2RELL
      000000D8H.2 SFRSYM    DATA     BIT       P52
      000000C0H.3 SFRSYM    DATA     BIT       P43
      000000B0H.4 SFRSYM    DATA     BIT       P34
      000000A0H.5 SFRSYM    DATA     BIT       P25
      00000090H.6 SFRSYM    DATA     BIT       P16
      00000080H.7 SFRSYM    DATA     BIT       P07
      000000E8H.5 SFRSYM    DATA     BIT       INT7EN
      000000C8H.2 SFRSYM    DATA     BIT       UCKS
      000000F8H   SFRSYM    DATA     BYTE      EXIP
      000000F3H   SFRSYM    DATA     BYTE      RTCM
      000000D8H.3 SFRSYM    DATA     BIT       P53
LX51 LINKER/LOCATER V4.66.97.0                                                        06/16/2023  12:31:30  PAGE 20


      000000C0H.4 SFRSYM    DATA     BIT       P44
      000000B0H.5 SFRSYM    DATA     BIT       P35
      000000A0H.6 SFRSYM    DATA     BIT       P26
      00000090H.7 SFRSYM    DATA     BIT       P17
      000000E8H.6 SFRSYM    DATA     BIT       INT8EN
      000000D8H.4 SFRSYM    DATA     BIT       P54
      000000C0H.5 SFRSYM    DATA     BIT       P45
      000000B0H.6 SFRSYM    DATA     BIT       P36
      000000A0H.7 SFRSYM    DATA     BIT       P27
      000000E8H.7 SFRSYM    DATA     BIT       INT9EN
      000000D8H.5 SFRSYM    DATA     BIT       P55
      000000C0H.6 SFRSYM    DATA     BIT       P46
      000000B0H.7 SFRSYM    DATA     BIT       P37
      000000D8H.6 SFRSYM    DATA     BIT       P56
      000000C0H.7 SFRSYM    DATA     BIT       P47
      000000EAH   SFRSYM    DATA     BYTE      RTAS
      000000AFH   SFRSYM    DATA     BYTE      HVTH
      00000095H   SFRSYM    DATA     BYTE      RCTAGH
      000000D8H.7 SFRSYM    DATA     BIT       P57
      000000F2H   SFRSYM    DATA     BYTE      RTCS
      00000088H.1 SFRSYM    DATA     BIT       IE0
      00000088H.3 SFRSYM    DATA     BIT       IE1
      00000094H   SFRSYM    DATA     BYTE      RCTAGL
      000000F0H   SFRSYM    DATA     BYTE      B
      000000E7H   SFRSYM    DATA     BYTE      MDUDAT
      000000DEH   SFRSYM    DATA     BYTE      PWMCFG
      000000D4H   SFRSYM    DATA     BYTE      PWMAIF
      000000E0H   SFRSYM    DATA     BYTE      ACC
      000000D5H   SFRSYM    DATA     BYTE      PWMBIF
      0000009FH   SFRSYM    DATA     BYTE      RCMSHH
      000000A8H.4 SFRSYM    DATA     BIT       ES0
      000000EFH   SFRSYM    DATA     BYTE      LVDCON
      000000E6H   SFRSYM    DATA     BYTE      MDUCON
      000000D6H   SFRSYM    DATA     BYTE      PWMCIF
      000000A8H.1 SFRSYM    DATA     BIT       ET0
      000000A8H.6 SFRSYM    DATA     BIT       ES1
      000000D7H   SFRSYM    DATA     BYTE      PWMDIF
      000000A8H.3 SFRSYM    DATA     BIT       ET1
      00000088H.5 SFRSYM    DATA     BIT       TF0
      000000FDH   SFRSYM    DATA     BYTE      IDLSTH
      000000AEH   SFRSYM    DATA     BYTE      PLLCON
      000000A8H.5 SFRSYM    DATA     BIT       ET2
      00000098H.0 SFRSYM    DATA     BIT       RI0
      00000088H.7 SFRSYM    DATA     BIT       TF1
      0000009EH   SFRSYM    DATA     BYTE      RCMSHL
      00000097H   SFRSYM    DATA     BYTE      RCMSLH
      000000C8H.7 SFRSYM    DATA     BIT       TF2
      00000098H.2 SFRSYM    DATA     BIT       RB8
      0000008CH   SFRSYM    DATA     BYTE      TH0
      000000A8H.0 SFRSYM    DATA     BIT       EX0
      00000098H.1 SFRSYM    DATA     BIT       TI0
      00000088H.0 SFRSYM    DATA     BIT       IT0
      0000008DH   SFRSYM    DATA     BYTE      TH1
      000000A8H.2 SFRSYM    DATA     BIT       EX1
      00000098H.3 SFRSYM    DATA     BIT       TB8
      00000088H.2 SFRSYM    DATA     BIT       IT1
      000000FCH   SFRSYM    DATA     BYTE      IDLSTL
      000000CDH   SFRSYM    DATA     BYTE      TH2
      000000D0H.0 SFRSYM    DATA     BIT       P
      00000096H   SFRSYM    DATA     BYTE      RCMSLL
      00000098H.7 SFRSYM    DATA     BIT       SM0
      0000008AH   SFRSYM    DATA     BYTE      TL0
      00000098H.6 SFRSYM    DATA     BIT       SM1
      000000E5H   SFRSYM    DATA     BYTE      LXDIVH
      0000008BH   SFRSYM    DATA     BYTE      TL1
LX51 LINKER/LOCATER V4.66.97.0                                                        06/16/2023  12:31:30  PAGE 21


      00000098H.5 SFRSYM    DATA     BIT       SM2
      000000CCH   SFRSYM    DATA     BYTE      TL2
      000000B8H.4 SFRSYM    DATA     BIT       PS0
      000000B8H.1 SFRSYM    DATA     BIT       PT0
      000000B8H.6 SFRSYM    DATA     BIT       PS1
      000000B8H.3 SFRSYM    DATA     BIT       PT1
      000000D0H.3 SFRSYM    DATA     BIT       RS0
      000000E4H   SFRSYM    DATA     BYTE      LXDIVL
      000000BDH   SFRSYM    DATA     BYTE      ADCDH
      000000B8H.5 SFRSYM    DATA     BIT       PT2
      00000088H.4 SFRSYM    DATA     BIT       TR0
      000000D0H.4 SFRSYM    DATA     BIT       RS1
      000000DDH   SFRSYM    DATA     BYTE      PWMCON
      00000088H.6 SFRSYM    DATA     BIT       TR1
      000000ADH   SFRSYM    DATA     BYTE      WDVTHH
      000000C8H.6 SFRSYM    DATA     BIT       TR2
      000000B8H.0 SFRSYM    DATA     BIT       PX0
      000000B8H.2 SFRSYM    DATA     BIT       PX1
      000000BCH   SFRSYM    DATA     BYTE      ADCDL
      000000ACH   SFRSYM    DATA     BYTE      WDVTHL
      000000DBH   SFRSYM    DATA     BYTE      PWMUPD
      00000099H   SFRSYM    DATA     BYTE      S0BUF
      0000009BH   SFRSYM    DATA     BYTE      S1BUF
      000000A2H   SFRSYM    DATA     BYTE      S2BUF
      00000098H   SFRSYM    DATA     BYTE      S0CON
      00000098H.4 SFRSYM    DATA     BIT       REN
      0000009AH   SFRSYM    DATA     BYTE      S1CON
      000000B9H   SFRSYM    DATA     BYTE      ADCON
      000000A1H   SFRSYM    DATA     BYTE      S2CON
      000000D0H.1 SFRSYM    DATA     BIT       DPS
      000000C9H   SFRSYM    DATA     BYTE      T2MOD
      000000C8H   SFRSYM    DATA     BYTE      T2CON
      000000FFH   SFRSYM    DATA     BYTE      STPSTH
      000000BFH   SFRSYM    DATA     BYTE      CKMIF
      000000FEH   SFRSYM    DATA     BYTE      STPSTL
      000000C2H   SFRSYM    DATA     BYTE      TKCFG
      00000093H   SFRSYM    DATA     BYTE      VCKDH
      000000D0H.5 SFRSYM    DATA     BIT       F0
      000000E2H   SFRSYM    DATA     BYTE      LXCFG
      000000ABH   SFRSYM    DATA     BYTE      WDFLG
      00000092H   SFRSYM    DATA     BYTE      VCKDL
      000000FBH   SFRSYM    DATA     BYTE      EPCON
      000000F6H   SFRSYM    DATA     BYTE      RTCDH
      000000C6H   SFRSYM    DATA     BYTE      ATKMH
      00000091H   SFRSYM    DATA     BYTE      RCCON
      000000F7H   SFRSYM    DATA     BYTE      INDEX
      000000EEH   SFRSYM    DATA     BYTE      RTCIF
      000000BEH   SFRSYM    DATA     BYTE      CKMON
      000000F5H   SFRSYM    DATA     BYTE      RTCDL
      000000D0H   SFRSYM    DATA     BYTE      PSW
      000000C5H   SFRSYM    DATA     BYTE      ATKML
      000000AAH   SFRSYM    DATA     BYTE      WDCON
      000000A6H   SFRSYM    DATA     BYTE      SPDAT

      010010A9H   BLOCK     CODE     ---       LVL=0
      00000001H   SYMBOL    DATA     DWORD     baudrate
      010010B1H   BLOCK     CODE     NEAR LAB  LVL=1
      00000004H   SYMBOL    DATA     WORD      value_temp
      ---         BLOCKEND  ---      ---       LVL=1
      010010A9H   LINE      CODE     ---       #122
      010010B1H   LINE      CODE     ---       #123
      010010B1H   LINE      CODE     ---       #126
      010010B6H   LINE      CODE     ---       #127
      010010B8H   LINE      CODE     ---       #128
      010010BCH   LINE      CODE     ---       #129
LX51 LINKER/LOCATER V4.66.97.0                                                        06/16/2023  12:31:30  PAGE 22


      010010BEH   LINE      CODE     ---       #130
      010010C0H   LINE      CODE     ---       #132
      010010EDH   LINE      CODE     ---       #135
      010010F3H   LINE      CODE     ---       #136
      010010F7H   LINE      CODE     ---       #139
      010010F9H   LINE      CODE     ---       #140
      010010FBH   LINE      CODE     ---       #142
      010010FEH   LINE      CODE     ---       #143
      01001100H   LINE      CODE     ---       #144
      ---         BLOCKEND  ---      ---       LVL=0

      0100103CH   BLOCK     CODE     ---       LVL=0
      00000007H   SYMBOL    DATA     BYTE      bdat
      0100103CH   BLOCK     CODE     NEAR LAB  LVL=1
      00000006H   SYMBOL    DATA     BYTE      free_space
      00000005H   SYMBOL    DATA     BYTE      tail_tmp
      ---         BLOCKEND  ---      ---       LVL=1
      0100103CH   LINE      CODE     ---       #145
      0100103CH   LINE      CODE     ---       #146
      0100103CH   LINE      CODE     ---       #149
      0100103CH   LINE      CODE     ---       #150
      0100103CH   LINE      CODE     ---       #151
      01001041H   LINE      CODE     ---       #152
      0100104AH   LINE      CODE     ---       #153
      0100104AH   LINE      CODE     ---       #154
      0100104EH   LINE      CODE     ---       #155
      01001050H   LINE      CODE     ---       #157
      01001050H   LINE      CODE     ---       #158
      0100105DH   LINE      CODE     ---       #159
      0100105DH   LINE      CODE     ---       #160
      01001067H   LINE      CODE     ---       #161
      01001067H   LINE      CODE     ---       #162
      01001069H   LINE      CODE     ---       #163
      0100106FH   LINE      CODE     ---       #164
      01001077H   LINE      CODE     ---       #165
      01001083H   LINE      CODE     ---       #166
      01001086H   LINE      CODE     ---       #167
      01001086H   LINE      CODE     ---       #168
      01001088H   LINE      CODE     ---       #169
      0100108EH   LINE      CODE     ---       #170
      01001096H   LINE      CODE     ---       #171
      010010A3H   LINE      CODE     ---       #172
      010010A5H   LINE      CODE     ---       #173
      010010A6H   LINE      CODE     ---       #175
      010010A6H   LINE      CODE     ---       #176
      010010A8H   LINE      CODE     ---       #177
      010010A8H   LINE      CODE     ---       #178
      010010A8H   LINE      CODE     ---       #179
      010010A8H   LINE      CODE     ---       #180
      010010A8H   LINE      CODE     ---       #181
      ---         BLOCKEND  ---      ---       LVL=0

      01000FC2H   BLOCK     CODE     ---       LVL=0
      01000FC2H   LINE      CODE     ---       #182
      01000FD1H   LINE      CODE     ---       #184
      01000FD6H   LINE      CODE     ---       #185
      01000FD6H   LINE      CODE     ---       #186
      01000FDEH   LINE      CODE     ---       #187
      01000FE4H   LINE      CODE     ---       #188
      01000FECH   LINE      CODE     ---       #189
      01000FF9H   LINE      CODE     ---       #190
      01000FF9H   LINE      CODE     ---       #191
      01000FFEH   LINE      CODE     ---       #192
      01000FFEH   LINE      CODE     ---       #193
      01001006H   LINE      CODE     ---       #194
LX51 LINKER/LOCATER V4.66.97.0                                                        06/16/2023  12:31:30  PAGE 23


      01001012H   LINE      CODE     ---       #195
      01001012H   LINE      CODE     ---       #196
      01001016H   LINE      CODE     ---       #197
      0100101EH   LINE      CODE     ---       #198
      0100102BH   LINE      CODE     ---       #199
      0100102DH   LINE      CODE     ---       #201
      0100102DH   LINE      CODE     ---       #202
      0100102FH   LINE      CODE     ---       #203
      0100102FH   LINE      CODE     ---       #204
      0100102FH   LINE      CODE     ---       #205
      ---         BLOCKEND  ---      ---       LVL=0

      01001215H   BLOCK     CODE     ---       LVL=0
      0000003FH   SYMBOL    DATA     ---       str
      01001215H   LINE      CODE     ---       #298
      0100121BH   LINE      CODE     ---       #299
      0100121BH   LINE      CODE     ---       #300
      01001226H   LINE      CODE     ---       #301
      01001226H   LINE      CODE     ---       #302
      01001237H   LINE      CODE     ---       #303
      01001239H   LINE      CODE     ---       #304
      ---         BLOCKEND  ---      ---       LVL=0

      010011DBH   BLOCK     CODE     ---       LVL=0
      0000002AH   SYMBOL    DATA     ---       fmt
      010011E1H   BLOCK     CODE     NEAR LAB  LVL=1
      0000002DH   SYMBOL    DATA     ---       ellipsis_15
      0000003CH   SYMBOL    DATA     ---       ap
      02000000H   SYMBOL    XDATA    ---       string
      ---         BLOCKEND  ---      ---       LVL=1
      010011DBH   LINE      CODE     ---       #305
      010011E1H   LINE      CODE     ---       #306
      010011E1H   LINE      CODE     ---       #309
      010011EAH   LINE      CODE     ---       #310
      01001202H   LINE      CODE     ---       #311
      0100120BH   LINE      CODE     ---       #312
      01001214H   LINE      CODE     ---       #313
      ---         BLOCKEND  ---      ---       LVL=0

      ---         MODULE    ---      ---       MAIN
      02008007H   PUBLIC    XDATA    BYTE      P07F
      0200800EH   PUBLIC    XDATA    BYTE      P16F
      02008015H   PUBLIC    XDATA    BYTE      P25F
      0200801CH   PUBLIC    XDATA    BYTE      P34F
      02008023H   PUBLIC    XDATA    BYTE      P43F
      0200802AH   PUBLIC    XDATA    BYTE      P52F
      02008031H   PUBLIC    XDATA    BYTE      P61F
      02008038H   PUBLIC    XDATA    BYTE      P70F
      0200813FH   PUBLIC    XDATA    BYTE      P37C
      02008146H   PUBLIC    XDATA    BYTE      P46C
      0200814DH   PUBLIC    XDATA    BYTE      P55C
      02008154H   PUBLIC    XDATA    BYTE      P64C
      0200815BH   PUBLIC    XDATA    BYTE      P73C
      02008006H   PUBLIC    XDATA    BYTE      P06F
      0200800DH   PUBLIC    XDATA    BYTE      P15F
      02008014H   PUBLIC    XDATA    BYTE      P24F
      0200801BH   PUBLIC    XDATA    BYTE      P33F
      02008022H   PUBLIC    XDATA    BYTE      P42F
      02008029H   PUBLIC    XDATA    BYTE      P51F
      02008030H   PUBLIC    XDATA    BYTE      P60F
      0200804DH   PUBLIC    XDATA    BYTE      CPSTA
      02008137H   PUBLIC    XDATA    BYTE      P27C
      0200813EH   PUBLIC    XDATA    BYTE      P36C
      02008145H   PUBLIC    XDATA    BYTE      P45C
      0200814CH   PUBLIC    XDATA    BYTE      P54C
LX51 LINKER/LOCATER V4.66.97.0                                                        06/16/2023  12:31:30  PAGE 24


      02008153H   PUBLIC    XDATA    BYTE      P63C
      0200815AH   PUBLIC    XDATA    BYTE      P72C
      02008005H   PUBLIC    XDATA    BYTE      P05F
      0200800CH   PUBLIC    XDATA    BYTE      P14F
      02008013H   PUBLIC    XDATA    BYTE      P23F
      0200801AH   PUBLIC    XDATA    BYTE      P32F
      02008021H   PUBLIC    XDATA    BYTE      P41F
      02008028H   PUBLIC    XDATA    BYTE      P50F
      02008092H   PUBLIC    XDATA    BYTE      ATKNL
      0200812FH   PUBLIC    XDATA    BYTE      P17C
      02008136H   PUBLIC    XDATA    BYTE      P26C
      0200813DH   PUBLIC    XDATA    BYTE      P35C
      02008144H   PUBLIC    XDATA    BYTE      P44C
      0200814BH   PUBLIC    XDATA    BYTE      P53C
      02008152H   PUBLIC    XDATA    BYTE      P62C
      02008159H   PUBLIC    XDATA    BYTE      P71C
      02008004H   PUBLIC    XDATA    BYTE      P04F
      0200800BH   PUBLIC    XDATA    BYTE      P13F
      02008012H   PUBLIC    XDATA    BYTE      P22F
      02008019H   PUBLIC    XDATA    BYTE      P31F
      02008020H   PUBLIC    XDATA    BYTE      P40F
      02008107H   PUBLIC    XDATA    BYTE      TLDAT
      02008109H   PUBLIC    XDATA    BYTE      TLFLG
      02008127H   PUBLIC    XDATA    BYTE      P07C
      0200812EH   PUBLIC    XDATA    BYTE      P16C
      02008135H   PUBLIC    XDATA    BYTE      P25C
      0200813CH   PUBLIC    XDATA    BYTE      P34C
      02008143H   PUBLIC    XDATA    BYTE      P43C
      0200814AH   PUBLIC    XDATA    BYTE      P52C
      02008151H   PUBLIC    XDATA    BYTE      P61C
      02008158H   PUBLIC    XDATA    BYTE      P70C
      02008003H   PUBLIC    XDATA    BYTE      P03F
      0200800AH   PUBLIC    XDATA    BYTE      P12F
      02008011H   PUBLIC    XDATA    BYTE      P21F
      02008018H   PUBLIC    XDATA    BYTE      P30F
      02008066H   PUBLIC    XDATA    BYTE      MTGDL
      02008126H   PUBLIC    XDATA    BYTE      P06C
      0200812DH   PUBLIC    XDATA    BYTE      P15C
      02008134H   PUBLIC    XDATA    BYTE      P24C
      0200813BH   PUBLIC    XDATA    BYTE      P33C
      02008142H   PUBLIC    XDATA    BYTE      P42C
      02008149H   PUBLIC    XDATA    BYTE      P51C
      02008150H   PUBLIC    XDATA    BYTE      P60C
      02008002H   PUBLIC    XDATA    BYTE      P02F
      02008009H   PUBLIC    XDATA    BYTE      P11F
      02008010H   PUBLIC    XDATA    BYTE      P20F
      02008125H   PUBLIC    XDATA    BYTE      P05C
      0200812CH   PUBLIC    XDATA    BYTE      P14C
      02008133H   PUBLIC    XDATA    BYTE      P23C
      0200813AH   PUBLIC    XDATA    BYTE      P32C
      02008141H   PUBLIC    XDATA    BYTE      P41C
      02008148H   PUBLIC    XDATA    BYTE      P50C
      02008001H   PUBLIC    XDATA    BYTE      P01F
      02008008H   PUBLIC    XDATA    BYTE      P10F
      02008093H   PUBLIC    XDATA    BYTE      ATKNH
      02008124H   PUBLIC    XDATA    BYTE      P04C
      0200812BH   PUBLIC    XDATA    BYTE      P13C
      02008132H   PUBLIC    XDATA    BYTE      P22C
      02008139H   PUBLIC    XDATA    BYTE      P31C
      02008140H   PUBLIC    XDATA    BYTE      P40C
      02008000H   PUBLIC    XDATA    BYTE      P00F
      02008123H   PUBLIC    XDATA    BYTE      P03C
      0200812AH   PUBLIC    XDATA    BYTE      P12C
      02008131H   PUBLIC    XDATA    BYTE      P21C
      02008138H   PUBLIC    XDATA    BYTE      P30C
LX51 LINKER/LOCATER V4.66.97.0                                                        06/16/2023  12:31:30  PAGE 25


      0200804CH   PUBLIC    XDATA    BYTE      CPCKS
      02008122H   PUBLIC    XDATA    BYTE      P02C
      02008129H   PUBLIC    XDATA    BYTE      P11C
      02008130H   PUBLIC    XDATA    BYTE      P20C
      02008121H   PUBLIC    XDATA    BYTE      P01C
      02008128H   PUBLIC    XDATA    BYTE      P10C
      02008081H   PUBLIC    XDATA    BYTE      CKSEL
      02008120H   PUBLIC    XDATA    BYTE      P00C
      0200FC00H   PUBLIC    XDATA    BYTE      MECON
      0200FC02H   PUBLIC    XDATA    BYTE      FSDAT
      02008082H   PUBLIC    XDATA    BYTE      CKDIV
      02008080H   PUBLIC    XDATA    BYTE      CKCON
      0200FC01H   PUBLIC    XDATA    BYTE      FSCMD
      02008056H   PUBLIC    XDATA    BYTE      FT3SL
      02008117H   PUBLIC    XDATA    BYTE      LXCAD
      02008054H   PUBLIC    XDATA    BYTE      FT2SL
      0200FC04H   PUBLIC    XDATA    BYTE      PADRD
      02008052H   PUBLIC    XDATA    BYTE      FT1SL
      02008087H   PUBLIC    XDATA    BYTE      TFCFG
      02008050H   PUBLIC    XDATA    BYTE      FT0SL
      02008057H   PUBLIC    XDATA    BYTE      FT3SH
      02008055H   PUBLIC    XDATA    BYTE      FT2SH
      02008053H   PUBLIC    XDATA    BYTE      FT1SH
      02008051H   PUBLIC    XDATA    BYTE      FT0SH
      02008042H   PUBLIC    XDATA    BYTE      OSTRIM
      0200807DH   PUBLIC    XDATA    BYTE      SMVTHL
      02008071H   PUBLIC    XDATA    BYTE      HDCT9
      02008070H   PUBLIC    XDATA    BYTE      HDCT8
      0200807EH   PUBLIC    XDATA    BYTE      SMVTHH
      0200806FH   PUBLIC    XDATA    BYTE      HDCT7
      0200806EH   PUBLIC    XDATA    BYTE      HDCT6
      0200806DH   PUBLIC    XDATA    BYTE      HDCT5
      0200806CH   PUBLIC    XDATA    BYTE      HDCT4
      0200806BH   PUBLIC    XDATA    BYTE      HDCT3
      0200806AH   PUBLIC    XDATA    BYTE      HDCT2
      02008069H   PUBLIC    XDATA    BYTE      HDCT1
      0200FC07H   PUBLIC    XDATA    BYTE      REPSET
      02008068H   PUBLIC    XDATA    BYTE      HDCT0
      02008110H   PUBLIC    XDATA    BYTE      TLCOMS
      02008060H   PUBLIC    XDATA    BYTE      MOTCON
      02008074H   PUBLIC    XDATA    BYTE      MOTPLC
      02008090H   PUBLIC    XDATA    BYTE      TKMAXF
      02008091H   PUBLIC    XDATA    BYTE      TKMINF
      0200810FH   PUBLIC    XDATA    BYTE      TLCNTD
      02008062H   PUBLIC    XDATA    BYTE      MTGCON
      0200807BH   PUBLIC    XDATA    BYTE      SMDATL
      02008058H   PUBLIC    XDATA    BYTE      CTMCON
      02008065H   PUBLIC    XDATA    BYTE      MOTCMD
      02008064H   PUBLIC    XDATA    BYTE      MFPCON
      0200FC05H   PUBLIC    XDATA    BYTE      PTSL
      02008041H   PUBLIC    XDATA    BYTE      OPBCON
      02008063H   PUBLIC    XDATA    BYTE      MHLCON
      0200807CH   PUBLIC    XDATA    BYTE      SMDATH
      02008040H   PUBLIC    XDATA    BYTE      OPACON
      02008061H   PUBLIC    XDATA    BYTE      MOTCFG
      0200FC06H   PUBLIC    XDATA    BYTE      PTSH
      02008106H   PUBLIC    XDATA    BYTE      TLEN
      02008085H   PUBLIC    XDATA    BYTE      ILCFGL
      0200808AH   PUBLIC    XDATA    BYTE      ACPDLL
      02008083H   PUBLIC    XDATA    BYTE      IHCFGL
      02008086H   PUBLIC    XDATA    BYTE      ILCFGH
      0200808BH   PUBLIC    XDATA    BYTE      ACPDLH
      0200808CH   PUBLIC    XDATA    BYTE      ACPDHL
      02008084H   PUBLIC    XDATA    BYTE      IHCFGH
      02008101H   PUBLIC    XDATA    BYTE      I2CIOS
LX51 LINKER/LOCATER V4.66.97.0                                                        06/16/2023  12:31:30  PAGE 26


      0200808DH   PUBLIC    XDATA    BYTE      ACPDHH
      0200FC03H   PUBLIC    XDATA    BYTE      LOCK
      0200804BH   PUBLIC    XDATA    BYTE      CP3CON
      0200804AH   PUBLIC    XDATA    BYTE      CP2CON
      02008049H   PUBLIC    XDATA    BYTE      CP1CON
      02008048H   PUBLIC    XDATA    BYTE      CP0CON
      02008059H   PUBLIC    XDATA    BYTE      CTMVTHL
      02008088H   PUBLIC    XDATA    BYTE      ADCALL
      0200805AH   PUBLIC    XDATA    BYTE      CTMVTHH
      0200810DH   PUBLIC    XDATA    BYTE      TLCNTLL
      02008089H   PUBLIC    XDATA    BYTE      ADCALH
      0200810BH   PUBLIC    XDATA    BYTE      TLCNTKL
      0200810EH   PUBLIC    XDATA    BYTE      TLCNTLH
      0200810CH   PUBLIC    XDATA    BYTE      TLCNTKH
      0200805BH   PUBLIC    XDATA    BYTE      CTMCNTL
      0200805CH   PUBLIC    XDATA    BYTE      CTMCNTH
      02008100H   PUBLIC    XDATA    BYTE      SPMAX
      02008103H   PUBLIC    XDATA    BYTE      TKPWC
      02008079H   PUBLIC    XDATA    BYTE      SMSTA
      0200811FH   PUBLIC    XDATA    BYTE      TPCTL
      02008073H   PUBLIC    XDATA    BYTE      HDCT11
      02008072H   PUBLIC    XDATA    BYTE      HDCT10
      0200807AH   PUBLIC    XDATA    BYTE      SMDIV
      02008037H   PUBLIC    XDATA    BYTE      P67F
      0200802FH   PUBLIC    XDATA    BYTE      P57F
      02008036H   PUBLIC    XDATA    BYTE      P66F
      0200803DH   PUBLIC    XDATA    BYTE      P75F
      0200810AH   PUBLIC    XDATA    BYTE      TLCKS
      02008027H   PUBLIC    XDATA    BYTE      P47F
      0200802EH   PUBLIC    XDATA    BYTE      P56F
      02008035H   PUBLIC    XDATA    BYTE      P65F
      0200803CH   PUBLIC    XDATA    BYTE      P74F
      0200804EH   PUBLIC    XDATA    BYTE      CPVTC
      02008078H   PUBLIC    XDATA    BYTE      SMCON
      02008108H   PUBLIC    XDATA    BYTE      TLCON
      0200801FH   PUBLIC    XDATA    BYTE      P37F
      02008026H   PUBLIC    XDATA    BYTE      P46F
      0200802DH   PUBLIC    XDATA    BYTE      P55F
      02008034H   PUBLIC    XDATA    BYTE      P64F
      0200803BH   PUBLIC    XDATA    BYTE      P73F
      02008067H   PUBLIC    XDATA    BYTE      MOTIF
      02008157H   PUBLIC    XDATA    BYTE      P67C
      02008017H   PUBLIC    XDATA    BYTE      P27F
      0200801EH   PUBLIC    XDATA    BYTE      P36F
      02008025H   PUBLIC    XDATA    BYTE      P45F
      0200802CH   PUBLIC    XDATA    BYTE      P54F
      02008033H   PUBLIC    XDATA    BYTE      P63F
      0200803AH   PUBLIC    XDATA    BYTE      P72F
      0200814FH   PUBLIC    XDATA    BYTE      P57C
      02008156H   PUBLIC    XDATA    BYTE      P66C
      0200815DH   PUBLIC    XDATA    BYTE      P75C
      0200800FH   PUBLIC    XDATA    BYTE      P17F
      02008016H   PUBLIC    XDATA    BYTE      P26F
      0200801DH   PUBLIC    XDATA    BYTE      P35F
      02008024H   PUBLIC    XDATA    BYTE      P44F
      0200802BH   PUBLIC    XDATA    BYTE      P53F
      02008032H   PUBLIC    XDATA    BYTE      P62F
      02008039H   PUBLIC    XDATA    BYTE      P71F
      0200811EH   PUBLIC    XDATA    BYTE      FTCTL
      02008147H   PUBLIC    XDATA    BYTE      P47C
      0200814EH   PUBLIC    XDATA    BYTE      P56C
      02008155H   PUBLIC    XDATA    BYTE      P65C
      0200815CH   PUBLIC    XDATA    BYTE      P74C
      0100123AH   PUBLIC    CODE     ---       main
      000000E3H   SFRSYM    DATA     BYTE      LXDAT
LX51 LINKER/LOCATER V4.66.97.0                                                        06/16/2023  12:31:30  PAGE 27


      000000C4H   SFRSYM    DATA     BYTE      TKCHS
      00000080H   SFRSYM    DATA     BYTE      P0
      000000C1H   SFRSYM    DATA     BYTE      TKCON
      00000090H   SFRSYM    DATA     BYTE      P1
      000000A0H   SFRSYM    DATA     BYTE      P2
      000000B0H   SFRSYM    DATA     BYTE      P3
      000000D0H.6 SFRSYM    DATA     BIT       AC
      000000C0H   SFRSYM    DATA     BYTE      P4
      000000D8H   SFRSYM    DATA     BYTE      P5
      000000A5H   SFRSYM    DATA     BYTE      SPCON
      000000A8H.7 SFRSYM    DATA     BIT       EA
      000000E1H   SFRSYM    DATA     BYTE      LXCON
      000000A9H   SFRSYM    DATA     BYTE      P6
      000000C8H.0 SFRSYM    DATA     BIT       T2P0
      000000D9H   SFRSYM    DATA     BYTE      P7
      000000C8H.1 SFRSYM    DATA     BIT       T2P1
      000000F1H   SFRSYM    DATA     BYTE      RTCON
      000000C8H.4 SFRSYM    DATA     BIT       T2R0
      000000DAH   SFRSYM    DATA     BYTE      PWMEN
      000000CFH   SFRSYM    DATA     BYTE      TKMSH
      00000086H   SFRSYM    DATA     BYTE      PWCON
      000000C8H.5 SFRSYM    DATA     BIT       T2R1
      000000CEH   SFRSYM    DATA     BYTE      TKMSL
      000000A7H   SFRSYM    DATA     BYTE      SPSTA
      00000083H   SFRSYM    DATA     BYTE      DP0H
      000000A8H   SFRSYM    DATA     BYTE      IE
      00000085H   SFRSYM    DATA     BYTE      DP1H
      000000E9H   SFRSYM    DATA     BYTE      RTCSS
      00000082H   SFRSYM    DATA     BYTE      DP0L
      000000CBH   SFRSYM    DATA     BYTE      T2CH
      000000B3H   SFRSYM    DATA     BYTE      I2CADM
      00000084H   SFRSYM    DATA     BYTE      DP1L
      000000C8H.3 SFRSYM    DATA     BIT       T2IE
      000000C3H   SFRSYM    DATA     BYTE      TKMTS
      000000CAH   SFRSYM    DATA     BYTE      T2CL
      000000B2H   SFRSYM    DATA     BYTE      I2CADR
      000000B4H   SFRSYM    DATA     BYTE      I2CCCR
      000000B8H   SFRSYM    DATA     BYTE      IP
      000000B7H   SFRSYM    DATA     BYTE      I2CFLG
      000000B5H   SFRSYM    DATA     BYTE      I2CDAT
      000000EDH   SFRSYM    DATA     BYTE      RTMSS
      000000D0H.7 SFRSYM    DATA     BIT       CY
      000000BBH   SFRSYM    DATA     BYTE      ADCFGH
      000000DCH   SFRSYM    DATA     BYTE      PWMCMAX
      000000B1H   SFRSYM    DATA     BYTE      I2CCON
      000000D1H   SFRSYM    DATA     BYTE      PWMDIVH
      000000BAH   SFRSYM    DATA     BYTE      ADCFGL
      00000081H   SFRSYM    DATA     BYTE      SP
      000000F9H   SFRSYM    DATA     BYTE      EPIE
      000000D0H.2 SFRSYM    DATA     BIT       OV
      000000FAH   SFRSYM    DATA     BYTE      EPIF
      000000DFH   SFRSYM    DATA     BYTE      PWMDIVL
      000000B6H   SFRSYM    DATA     BYTE      I2CSTA
      000000E8H   SFRSYM    DATA     BYTE      EXIE
      000000D3H   SFRSYM    DATA     BYTE      PWMDUTH
      000000C7H   SFRSYM    DATA     BYTE      TKIF
      0000008FH   SFRSYM    DATA     BYTE      IT0CON
      00000080H.0 SFRSYM    DATA     BIT       P00
      000000ECH   SFRSYM    DATA     BYTE      RTAH
      000000D2H   SFRSYM    DATA     BYTE      PWMDUTL
      0000008EH   SFRSYM    DATA     BYTE      IT1CON
      00000090H.0 SFRSYM    DATA     BIT       P10
      00000080H.1 SFRSYM    DATA     BIT       P01
      0000009DH   SFRSYM    DATA     BYTE      S1RELH
      00000087H   SFRSYM    DATA     BYTE      PCON
LX51 LINKER/LOCATER V4.66.97.0                                                        06/16/2023  12:31:30  PAGE 28


      000000A0H.0 SFRSYM    DATA     BIT       P20
      00000090H.1 SFRSYM    DATA     BIT       P11
      00000080H.2 SFRSYM    DATA     BIT       P02
      000000E8H.0 SFRSYM    DATA     BIT       INT2EN
      000000F4H   SFRSYM    DATA     BYTE      RTCH
      000000A4H   SFRSYM    DATA     BYTE      S2RELH
      000000B0H.0 SFRSYM    DATA     BIT       P30
      000000A0H.1 SFRSYM    DATA     BIT       P21
      00000090H.2 SFRSYM    DATA     BIT       P12
      00000080H.3 SFRSYM    DATA     BIT       P03
      000000E8H.1 SFRSYM    DATA     BIT       INT3EN
      000000C0H.0 SFRSYM    DATA     BIT       P40
      000000B0H.1 SFRSYM    DATA     BIT       P31
      000000A0H.2 SFRSYM    DATA     BIT       P22
      00000090H.3 SFRSYM    DATA     BIT       P13
      00000080H.4 SFRSYM    DATA     BIT       P04
      000000E8H.2 SFRSYM    DATA     BIT       INT4EN
      000000D8H.0 SFRSYM    DATA     BIT       P50
      000000C0H.1 SFRSYM    DATA     BIT       P41
      000000B0H.2 SFRSYM    DATA     BIT       P32
      000000A0H.3 SFRSYM    DATA     BIT       P23
      00000090H.4 SFRSYM    DATA     BIT       P14
      00000080H.5 SFRSYM    DATA     BIT       P05
      000000E8H.3 SFRSYM    DATA     BIT       INT5EN
      000000EBH   SFRSYM    DATA     BYTE      RTAM
      0000009CH   SFRSYM    DATA     BYTE      S1RELL
      00000089H   SFRSYM    DATA     BYTE      TMOD
      00000088H   SFRSYM    DATA     BYTE      TCON
      000000D8H.1 SFRSYM    DATA     BIT       P51
      000000C0H.2 SFRSYM    DATA     BIT       P42
      000000B0H.3 SFRSYM    DATA     BIT       P33
      000000A0H.4 SFRSYM    DATA     BIT       P24
      00000090H.5 SFRSYM    DATA     BIT       P15
      00000080H.6 SFRSYM    DATA     BIT       P06
      000000E8H.4 SFRSYM    DATA     BIT       INT6EN
      000000A3H   SFRSYM    DATA     BYTE      S2RELL
      000000D8H.2 SFRSYM    DATA     BIT       P52
      000000C0H.3 SFRSYM    DATA     BIT       P43
      000000B0H.4 SFRSYM    DATA     BIT       P34
      000000A0H.5 SFRSYM    DATA     BIT       P25
      00000090H.6 SFRSYM    DATA     BIT       P16
      00000080H.7 SFRSYM    DATA     BIT       P07
      000000E8H.5 SFRSYM    DATA     BIT       INT7EN
      000000C8H.2 SFRSYM    DATA     BIT       UCKS
      000000F8H   SFRSYM    DATA     BYTE      EXIP
      000000F3H   SFRSYM    DATA     BYTE      RTCM
      000000D8H.3 SFRSYM    DATA     BIT       P53
      000000C0H.4 SFRSYM    DATA     BIT       P44
      000000B0H.5 SFRSYM    DATA     BIT       P35
      000000A0H.6 SFRSYM    DATA     BIT       P26
      00000090H.7 SFRSYM    DATA     BIT       P17
      000000E8H.6 SFRSYM    DATA     BIT       INT8EN
      000000D8H.4 SFRSYM    DATA     BIT       P54
      000000C0H.5 SFRSYM    DATA     BIT       P45
      000000B0H.6 SFRSYM    DATA     BIT       P36
      000000A0H.7 SFRSYM    DATA     BIT       P27
      000000E8H.7 SFRSYM    DATA     BIT       INT9EN
      000000D8H.5 SFRSYM    DATA     BIT       P55
      000000C0H.6 SFRSYM    DATA     BIT       P46
      000000B0H.7 SFRSYM    DATA     BIT       P37
      000000D8H.6 SFRSYM    DATA     BIT       P56
      000000C0H.7 SFRSYM    DATA     BIT       P47
      000000EAH   SFRSYM    DATA     BYTE      RTAS
      000000AFH   SFRSYM    DATA     BYTE      HVTH
      00000095H   SFRSYM    DATA     BYTE      RCTAGH
LX51 LINKER/LOCATER V4.66.97.0                                                        06/16/2023  12:31:30  PAGE 29


      000000D8H.7 SFRSYM    DATA     BIT       P57
      000000F2H   SFRSYM    DATA     BYTE      RTCS
      00000088H.1 SFRSYM    DATA     BIT       IE0
      00000088H.3 SFRSYM    DATA     BIT       IE1
      00000094H   SFRSYM    DATA     BYTE      RCTAGL
      000000F0H   SFRSYM    DATA     BYTE      B
      000000E7H   SFRSYM    DATA     BYTE      MDUDAT
      000000DEH   SFRSYM    DATA     BYTE      PWMCFG
      000000D4H   SFRSYM    DATA     BYTE      PWMAIF
      000000E0H   SFRSYM    DATA     BYTE      ACC
      000000D5H   SFRSYM    DATA     BYTE      PWMBIF
      0000009FH   SFRSYM    DATA     BYTE      RCMSHH
      000000A8H.4 SFRSYM    DATA     BIT       ES0
      000000EFH   SFRSYM    DATA     BYTE      LVDCON
      000000E6H   SFRSYM    DATA     BYTE      MDUCON
      000000D6H   SFRSYM    DATA     BYTE      PWMCIF
      000000A8H.1 SFRSYM    DATA     BIT       ET0
      000000A8H.6 SFRSYM    DATA     BIT       ES1
      000000D7H   SFRSYM    DATA     BYTE      PWMDIF
      000000A8H.3 SFRSYM    DATA     BIT       ET1
      00000088H.5 SFRSYM    DATA     BIT       TF0
      000000FDH   SFRSYM    DATA     BYTE      IDLSTH
      000000AEH   SFRSYM    DATA     BYTE      PLLCON
      000000A8H.5 SFRSYM    DATA     BIT       ET2
      00000098H.0 SFRSYM    DATA     BIT       RI0
      00000088H.7 SFRSYM    DATA     BIT       TF1
      0000009EH   SFRSYM    DATA     BYTE      RCMSHL
      00000097H   SFRSYM    DATA     BYTE      RCMSLH
      000000C8H.7 SFRSYM    DATA     BIT       TF2
      00000098H.2 SFRSYM    DATA     BIT       RB8
      0000008CH   SFRSYM    DATA     BYTE      TH0
      000000A8H.0 SFRSYM    DATA     BIT       EX0
      00000098H.1 SFRSYM    DATA     BIT       TI0
      00000088H.0 SFRSYM    DATA     BIT       IT0
      0000008DH   SFRSYM    DATA     BYTE      TH1
      000000A8H.2 SFRSYM    DATA     BIT       EX1
      00000098H.3 SFRSYM    DATA     BIT       TB8
      00000088H.2 SFRSYM    DATA     BIT       IT1
      000000FCH   SFRSYM    DATA     BYTE      IDLSTL
      000000CDH   SFRSYM    DATA     BYTE      TH2
      000000D0H.0 SFRSYM    DATA     BIT       P
      00000096H   SFRSYM    DATA     BYTE      RCMSLL
      00000098H.7 SFRSYM    DATA     BIT       SM0
      0000008AH   SFRSYM    DATA     BYTE      TL0
      00000098H.6 SFRSYM    DATA     BIT       SM1
      000000E5H   SFRSYM    DATA     BYTE      LXDIVH
      0000008BH   SFRSYM    DATA     BYTE      TL1
      00000098H.5 SFRSYM    DATA     BIT       SM2
      000000CCH   SFRSYM    DATA     BYTE      TL2
      000000B8H.4 SFRSYM    DATA     BIT       PS0
      000000B8H.1 SFRSYM    DATA     BIT       PT0
      000000B8H.6 SFRSYM    DATA     BIT       PS1
      000000B8H.3 SFRSYM    DATA     BIT       PT1
      000000D0H.3 SFRSYM    DATA     BIT       RS0
      000000E4H   SFRSYM    DATA     BYTE      LXDIVL
      000000BDH   SFRSYM    DATA     BYTE      ADCDH
      000000B8H.5 SFRSYM    DATA     BIT       PT2
      00000088H.4 SFRSYM    DATA     BIT       TR0
      000000D0H.4 SFRSYM    DATA     BIT       RS1
      000000DDH   SFRSYM    DATA     BYTE      PWMCON
      00000088H.6 SFRSYM    DATA     BIT       TR1
      000000ADH   SFRSYM    DATA     BYTE      WDVTHH
      000000C8H.6 SFRSYM    DATA     BIT       TR2
      000000B8H.0 SFRSYM    DATA     BIT       PX0
      000000B8H.2 SFRSYM    DATA     BIT       PX1
LX51 LINKER/LOCATER V4.66.97.0                                                        06/16/2023  12:31:30  PAGE 30


      000000BCH   SFRSYM    DATA     BYTE      ADCDL
      000000ACH   SFRSYM    DATA     BYTE      WDVTHL
      000000DBH   SFRSYM    DATA     BYTE      PWMUPD
      00000099H   SFRSYM    DATA     BYTE      S0BUF
      0000009BH   SFRSYM    DATA     BYTE      S1BUF
      000000A2H   SFRSYM    DATA     BYTE      S2BUF
      00000098H   SFRSYM    DATA     BYTE      S0CON
      00000098H.4 SFRSYM    DATA     BIT       REN
      0000009AH   SFRSYM    DATA     BYTE      S1CON
      000000B9H   SFRSYM    DATA     BYTE      ADCON
      000000A1H   SFRSYM    DATA     BYTE      S2CON
      000000D0H.1 SFRSYM    DATA     BIT       DPS
      000000C9H   SFRSYM    DATA     BYTE      T2MOD
      000000C8H   SFRSYM    DATA     BYTE      T2CON
      000000FFH   SFRSYM    DATA     BYTE      STPSTH
      000000BFH   SFRSYM    DATA     BYTE      CKMIF
      000000FEH   SFRSYM    DATA     BYTE      STPSTL
      000000C2H   SFRSYM    DATA     BYTE      TKCFG
      00000093H   SFRSYM    DATA     BYTE      VCKDH
      000000D0H.5 SFRSYM    DATA     BIT       F0
      000000E2H   SFRSYM    DATA     BYTE      LXCFG
      000000ABH   SFRSYM    DATA     BYTE      WDFLG
      00000092H   SFRSYM    DATA     BYTE      VCKDL
      000000FBH   SFRSYM    DATA     BYTE      EPCON
      000000F6H   SFRSYM    DATA     BYTE      RTCDH
      000000C6H   SFRSYM    DATA     BYTE      ATKMH
      00000091H   SFRSYM    DATA     BYTE      RCCON
      000000F7H   SFRSYM    DATA     BYTE      INDEX
      000000EEH   SFRSYM    DATA     BYTE      RTCIF
      000000BEH   SFRSYM    DATA     BYTE      CKMON
      000000F5H   SFRSYM    DATA     BYTE      RTCDL
      000000D0H   SFRSYM    DATA     BYTE      PSW
      000000C5H   SFRSYM    DATA     BYTE      ATKML
      000000AAH   SFRSYM    DATA     BYTE      WDCON
      000000A6H   SFRSYM    DATA     BYTE      SPDAT

      0100123AH   BLOCK     CODE     ---       LVL=0
      0100123AH   BLOCK     CODE     NEAR LAB  LVL=1
      00000000H   SYMBOL    DATA     BYTE      i
      ---         BLOCKEND  ---      ---       LVL=1
      0100123AH   LINE      CODE     ---       #29
      0100123AH   LINE      CODE     ---       #30
      0100123AH   LINE      CODE     ---       #34
      0100123DH   LINE      CODE     ---       #46
      01001248H   LINE      CODE     ---       #52
      0100124BH   LINE      CODE     ---       #53
      0100124DH   LINE      CODE     ---       #56
      01001256H   LINE      CODE     ---       #96
      01001256H   LINE      CODE     ---       #97
      01001256H   LINE      CODE     ---       #98
      01001259H   LINE      CODE     ---       #101
      ---         BLOCKEND  ---      ---       LVL=0

      ---         MODULE    ---      ---       DELAY
      01001301H   PUBLIC    CODE     ---       _Delay_ms
      0100127CH   PUBLIC    CODE     ---       _delay_us
      00000006H   SYMBOL    DATA     WORD      n
      00000005H   SYMBOL    DATA     BYTE      i

      0100127CH   BLOCK     CODE     ---       LVL=0
      00000006H   SYMBOL    DATA     WORD      n
      0100127CH   BLOCK     CODE     NEAR LAB  LVL=1
      00000004H   SYMBOL    DATA     WORD      i
      ---         BLOCKEND  ---      ---       LVL=1
      0100127CH   LINE      CODE     ---       #17
LX51 LINKER/LOCATER V4.66.97.0                                                        06/16/2023  12:31:30  PAGE 31


      0100127CH   LINE      CODE     ---       #18
      0100127CH   LINE      CODE     ---       #20
      01001285H   LINE      CODE     ---       #21
      01001285H   LINE      CODE     ---       #25
      01001292H   LINE      CODE     ---       #26
      01001299H   LINE      CODE     ---       #27
      ---         BLOCKEND  ---      ---       LVL=0

      01001301H   BLOCK     CODE     ---       LVL=0
      00000002H   SYMBOL    DATA     WORD      n
      01001301H   LINE      CODE     ---       #28
      01001305H   LINE      CODE     ---       #29
      01001305H   LINE      CODE     ---       #30
      0100130FH   LINE      CODE     ---       #31
      0100130FH   LINE      CODE     ---       #32
      01001316H   LINE      CODE     ---       #33
      01001318H   LINE      CODE     ---       #34
      ---         BLOCKEND  ---      ---       LVL=0

      ---         MODULE    ---      ---       SYSTEM_CLOCK
      000000E3H   SFRSYM    DATA     BYTE      LXDAT
      000000C4H   SFRSYM    DATA     BYTE      TKCHS
      00000080H   SFRSYM    DATA     BYTE      P0
      000000C1H   SFRSYM    DATA     BYTE      TKCON
      00000090H   SFRSYM    DATA     BYTE      P1
      000000A0H   SFRSYM    DATA     BYTE      P2
      000000B0H   SFRSYM    DATA     BYTE      P3
      000000D0H.6 SFRSYM    DATA     BIT       AC
      000000C0H   SFRSYM    DATA     BYTE      P4
      000000D8H   SFRSYM    DATA     BYTE      P5
      000000A5H   SFRSYM    DATA     BYTE      SPCON
      000000A8H.7 SFRSYM    DATA     BIT       EA
      000000E1H   SFRSYM    DATA     BYTE      LXCON
      000000A9H   SFRSYM    DATA     BYTE      P6
      000000C8H.0 SFRSYM    DATA     BIT       T2P0
      000000D9H   SFRSYM    DATA     BYTE      P7
      000000C8H.1 SFRSYM    DATA     BIT       T2P1
      000000F1H   SFRSYM    DATA     BYTE      RTCON
      000000C8H.4 SFRSYM    DATA     BIT       T2R0
      000000DAH   SFRSYM    DATA     BYTE      PWMEN
      000000CFH   SFRSYM    DATA     BYTE      TKMSH
      00000086H   SFRSYM    DATA     BYTE      PWCON
      000000C8H.5 SFRSYM    DATA     BIT       T2R1
      000000CEH   SFRSYM    DATA     BYTE      TKMSL
      000000A7H   SFRSYM    DATA     BYTE      SPSTA
      00000083H   SFRSYM    DATA     BYTE      DP0H
      000000A8H   SFRSYM    DATA     BYTE      IE
      00000085H   SFRSYM    DATA     BYTE      DP1H
      000000E9H   SFRSYM    DATA     BYTE      RTCSS
      00000082H   SFRSYM    DATA     BYTE      DP0L
      000000CBH   SFRSYM    DATA     BYTE      T2CH
      000000B3H   SFRSYM    DATA     BYTE      I2CADM
      00000084H   SFRSYM    DATA     BYTE      DP1L
      000000C8H.3 SFRSYM    DATA     BIT       T2IE
      000000C3H   SFRSYM    DATA     BYTE      TKMTS
      000000CAH   SFRSYM    DATA     BYTE      T2CL
      000000B2H   SFRSYM    DATA     BYTE      I2CADR
      000000B4H   SFRSYM    DATA     BYTE      I2CCCR
      000000B8H   SFRSYM    DATA     BYTE      IP
      000000B7H   SFRSYM    DATA     BYTE      I2CFLG
      000000B5H   SFRSYM    DATA     BYTE      I2CDAT
      000000EDH   SFRSYM    DATA     BYTE      RTMSS
      000000D0H.7 SFRSYM    DATA     BIT       CY
      000000BBH   SFRSYM    DATA     BYTE      ADCFGH
      000000DCH   SFRSYM    DATA     BYTE      PWMCMAX
LX51 LINKER/LOCATER V4.66.97.0                                                        06/16/2023  12:31:30  PAGE 32


      000000B1H   SFRSYM    DATA     BYTE      I2CCON
      000000D1H   SFRSYM    DATA     BYTE      PWMDIVH
      000000BAH   SFRSYM    DATA     BYTE      ADCFGL
      00000081H   SFRSYM    DATA     BYTE      SP
      000000F9H   SFRSYM    DATA     BYTE      EPIE
      000000D0H.2 SFRSYM    DATA     BIT       OV
      000000FAH   SFRSYM    DATA     BYTE      EPIF
      000000DFH   SFRSYM    DATA     BYTE      PWMDIVL
      000000B6H   SFRSYM    DATA     BYTE      I2CSTA
      000000E8H   SFRSYM    DATA     BYTE      EXIE
      000000D3H   SFRSYM    DATA     BYTE      PWMDUTH
      000000C7H   SFRSYM    DATA     BYTE      TKIF
      0000008FH   SFRSYM    DATA     BYTE      IT0CON
      00000080H.0 SFRSYM    DATA     BIT       P00
      000000ECH   SFRSYM    DATA     BYTE      RTAH
      000000D2H   SFRSYM    DATA     BYTE      PWMDUTL
      0000008EH   SFRSYM    DATA     BYTE      IT1CON
      00000090H.0 SFRSYM    DATA     BIT       P10
      00000080H.1 SFRSYM    DATA     BIT       P01
      0000009DH   SFRSYM    DATA     BYTE      S1RELH
      00000087H   SFRSYM    DATA     BYTE      PCON
      000000A0H.0 SFRSYM    DATA     BIT       P20
      00000090H.1 SFRSYM    DATA     BIT       P11
      00000080H.2 SFRSYM    DATA     BIT       P02
      000000E8H.0 SFRSYM    DATA     BIT       INT2EN
      000000F4H   SFRSYM    DATA     BYTE      RTCH
      000000A4H   SFRSYM    DATA     BYTE      S2RELH
      000000B0H.0 SFRSYM    DATA     BIT       P30
      000000A0H.1 SFRSYM    DATA     BIT       P21
      00000090H.2 SFRSYM    DATA     BIT       P12
      00000080H.3 SFRSYM    DATA     BIT       P03
      000000E8H.1 SFRSYM    DATA     BIT       INT3EN
      000000C0H.0 SFRSYM    DATA     BIT       P40
      000000B0H.1 SFRSYM    DATA     BIT       P31
      000000A0H.2 SFRSYM    DATA     BIT       P22
      00000090H.3 SFRSYM    DATA     BIT       P13
      00000080H.4 SFRSYM    DATA     BIT       P04
      000000E8H.2 SFRSYM    DATA     BIT       INT4EN
      000000D8H.0 SFRSYM    DATA     BIT       P50
      000000C0H.1 SFRSYM    DATA     BIT       P41
      000000B0H.2 SFRSYM    DATA     BIT       P32
      000000A0H.3 SFRSYM    DATA     BIT       P23
      00000090H.4 SFRSYM    DATA     BIT       P14
      00000080H.5 SFRSYM    DATA     BIT       P05
      000000E8H.3 SFRSYM    DATA     BIT       INT5EN
      000000EBH   SFRSYM    DATA     BYTE      RTAM
      0000009CH   SFRSYM    DATA     BYTE      S1RELL
      00000089H   SFRSYM    DATA     BYTE      TMOD
      00000088H   SFRSYM    DATA     BYTE      TCON
      000000D8H.1 SFRSYM    DATA     BIT       P51
      000000C0H.2 SFRSYM    DATA     BIT       P42
      000000B0H.3 SFRSYM    DATA     BIT       P33
      000000A0H.4 SFRSYM    DATA     BIT       P24
      00000090H.5 SFRSYM    DATA     BIT       P15
      00000080H.6 SFRSYM    DATA     BIT       P06
      000000E8H.4 SFRSYM    DATA     BIT       INT6EN
      000000A3H   SFRSYM    DATA     BYTE      S2RELL
      000000D8H.2 SFRSYM    DATA     BIT       P52
      000000C0H.3 SFRSYM    DATA     BIT       P43
      000000B0H.4 SFRSYM    DATA     BIT       P34
      000000A0H.5 SFRSYM    DATA     BIT       P25
      00000090H.6 SFRSYM    DATA     BIT       P16
      00000080H.7 SFRSYM    DATA     BIT       P07
      000000E8H.5 SFRSYM    DATA     BIT       INT7EN
      000000C8H.2 SFRSYM    DATA     BIT       UCKS
LX51 LINKER/LOCATER V4.66.97.0                                                        06/16/2023  12:31:30  PAGE 33


      000000F8H   SFRSYM    DATA     BYTE      EXIP
      000000F3H   SFRSYM    DATA     BYTE      RTCM
      000000D8H.3 SFRSYM    DATA     BIT       P53
      000000C0H.4 SFRSYM    DATA     BIT       P44
      000000B0H.5 SFRSYM    DATA     BIT       P35
      000000A0H.6 SFRSYM    DATA     BIT       P26
      00000090H.7 SFRSYM    DATA     BIT       P17
      000000E8H.6 SFRSYM    DATA     BIT       INT8EN
      000000D8H.4 SFRSYM    DATA     BIT       P54
      000000C0H.5 SFRSYM    DATA     BIT       P45
      000000B0H.6 SFRSYM    DATA     BIT       P36
      000000A0H.7 SFRSYM    DATA     BIT       P27
      000000E8H.7 SFRSYM    DATA     BIT       INT9EN
      000000D8H.5 SFRSYM    DATA     BIT       P55
      000000C0H.6 SFRSYM    DATA     BIT       P46
      000000B0H.7 SFRSYM    DATA     BIT       P37
      000000D8H.6 SFRSYM    DATA     BIT       P56
      000000C0H.7 SFRSYM    DATA     BIT       P47
      000000EAH   SFRSYM    DATA     BYTE      RTAS
      000000AFH   SFRSYM    DATA     BYTE      HVTH
      00000095H   SFRSYM    DATA     BYTE      RCTAGH
      000000D8H.7 SFRSYM    DATA     BIT       P57
      000000F2H   SFRSYM    DATA     BYTE      RTCS
      00000088H.1 SFRSYM    DATA     BIT       IE0
      00000088H.3 SFRSYM    DATA     BIT       IE1
      00000094H   SFRSYM    DATA     BYTE      RCTAGL
      000000F0H   SFRSYM    DATA     BYTE      B
      000000E7H   SFRSYM    DATA     BYTE      MDUDAT
      000000DEH   SFRSYM    DATA     BYTE      PWMCFG
      000000D4H   SFRSYM    DATA     BYTE      PWMAIF
      000000E0H   SFRSYM    DATA     BYTE      ACC
      000000D5H   SFRSYM    DATA     BYTE      PWMBIF
      0000009FH   SFRSYM    DATA     BYTE      RCMSHH
      000000A8H.4 SFRSYM    DATA     BIT       ES0
      000000EFH   SFRSYM    DATA     BYTE      LVDCON
      000000E6H   SFRSYM    DATA     BYTE      MDUCON
      000000D6H   SFRSYM    DATA     BYTE      PWMCIF
      000000A8H.1 SFRSYM    DATA     BIT       ET0
      000000A8H.6 SFRSYM    DATA     BIT       ES1
      000000D7H   SFRSYM    DATA     BYTE      PWMDIF
      000000A8H.3 SFRSYM    DATA     BIT       ET1
      00000088H.5 SFRSYM    DATA     BIT       TF0
      000000FDH   SFRSYM    DATA     BYTE      IDLSTH
      000000AEH   SFRSYM    DATA     BYTE      PLLCON
      000000A8H.5 SFRSYM    DATA     BIT       ET2
      00000098H.0 SFRSYM    DATA     BIT       RI0
      00000088H.7 SFRSYM    DATA     BIT       TF1
      0000009EH   SFRSYM    DATA     BYTE      RCMSHL
      00000097H   SFRSYM    DATA     BYTE      RCMSLH
      000000C8H.7 SFRSYM    DATA     BIT       TF2
      00000098H.2 SFRSYM    DATA     BIT       RB8
      0000008CH   SFRSYM    DATA     BYTE      TH0
      000000A8H.0 SFRSYM    DATA     BIT       EX0
      00000098H.1 SFRSYM    DATA     BIT       TI0
      00000088H.0 SFRSYM    DATA     BIT       IT0
      0000008DH   SFRSYM    DATA     BYTE      TH1
      000000A8H.2 SFRSYM    DATA     BIT       EX1
      00000098H.3 SFRSYM    DATA     BIT       TB8
      00000088H.2 SFRSYM    DATA     BIT       IT1
      000000FCH   SFRSYM    DATA     BYTE      IDLSTL
      000000CDH   SFRSYM    DATA     BYTE      TH2
      000000D0H.0 SFRSYM    DATA     BIT       P
      00000096H   SFRSYM    DATA     BYTE      RCMSLL
      00000098H.7 SFRSYM    DATA     BIT       SM0
      0000008AH   SFRSYM    DATA     BYTE      TL0
LX51 LINKER/LOCATER V4.66.97.0                                                        06/16/2023  12:31:30  PAGE 34


      00000098H.6 SFRSYM    DATA     BIT       SM1
      000000E5H   SFRSYM    DATA     BYTE      LXDIVH
      0000008BH   SFRSYM    DATA     BYTE      TL1
      00000098H.5 SFRSYM    DATA     BIT       SM2
      000000CCH   SFRSYM    DATA     BYTE      TL2
      000000B8H.4 SFRSYM    DATA     BIT       PS0
      000000B8H.1 SFRSYM    DATA     BIT       PT0
      000000B8H.6 SFRSYM    DATA     BIT       PS1
      000000B8H.3 SFRSYM    DATA     BIT       PT1
      000000D0H.3 SFRSYM    DATA     BIT       RS0
      000000E4H   SFRSYM    DATA     BYTE      LXDIVL
      000000BDH   SFRSYM    DATA     BYTE      ADCDH
      000000B8H.5 SFRSYM    DATA     BIT       PT2
      00000088H.4 SFRSYM    DATA     BIT       TR0
      000000D0H.4 SFRSYM    DATA     BIT       RS1
      000000DDH   SFRSYM    DATA     BYTE      PWMCON
      00000088H.6 SFRSYM    DATA     BIT       TR1
      000000ADH   SFRSYM    DATA     BYTE      WDVTHH
      000000C8H.6 SFRSYM    DATA     BIT       TR2
      000000B8H.0 SFRSYM    DATA     BIT       PX0
      000000B8H.2 SFRSYM    DATA     BIT       PX1
      000000BCH   SFRSYM    DATA     BYTE      ADCDL
      000000ACH   SFRSYM    DATA     BYTE      WDVTHL
      000000DBH   SFRSYM    DATA     BYTE      PWMUPD
      00000099H   SFRSYM    DATA     BYTE      S0BUF
      0000009BH   SFRSYM    DATA     BYTE      S1BUF
      000000A2H   SFRSYM    DATA     BYTE      S2BUF
      00000098H   SFRSYM    DATA     BYTE      S0CON
      00000098H.4 SFRSYM    DATA     BIT       REN
      0000009AH   SFRSYM    DATA     BYTE      S1CON
      000000B9H   SFRSYM    DATA     BYTE      ADCON
      000000A1H   SFRSYM    DATA     BYTE      S2CON
      000000D0H.1 SFRSYM    DATA     BIT       DPS
      000000C9H   SFRSYM    DATA     BYTE      T2MOD
      000000C8H   SFRSYM    DATA     BYTE      T2CON
      000000FFH   SFRSYM    DATA     BYTE      STPSTH
      000000BFH   SFRSYM    DATA     BYTE      CKMIF
      000000FEH   SFRSYM    DATA     BYTE      STPSTL
      000000C2H   SFRSYM    DATA     BYTE      TKCFG
      00000093H   SFRSYM    DATA     BYTE      VCKDH
      000000D0H.5 SFRSYM    DATA     BIT       F0
      000000E2H   SFRSYM    DATA     BYTE      LXCFG
      000000ABH   SFRSYM    DATA     BYTE      WDFLG
      00000092H   SFRSYM    DATA     BYTE      VCKDL
      000000FBH   SFRSYM    DATA     BYTE      EPCON
      000000F6H   SFRSYM    DATA     BYTE      RTCDH
      000000C6H   SFRSYM    DATA     BYTE      ATKMH
      00000091H   SFRSYM    DATA     BYTE      RCCON
      000000F7H   SFRSYM    DATA     BYTE      INDEX
      000000EEH   SFRSYM    DATA     BYTE      RTCIF
      000000BEH   SFRSYM    DATA     BYTE      CKMON
      000000F5H   SFRSYM    DATA     BYTE      RTCDL
      000000D0H   SFRSYM    DATA     BYTE      PSW
      000000C5H   SFRSYM    DATA     BYTE      ATKML
      000000AAH   SFRSYM    DATA     BYTE      WDCON
      000000A6H   SFRSYM    DATA     BYTE      SPDAT
      00000007H   SYMBOL    DATA     BYTE      Multiple

      ---         MODULE    ---      ---       LCD
      000000E3H   SFRSYM    DATA     BYTE      LXDAT
      000000C4H   SFRSYM    DATA     BYTE      TKCHS
      00000080H   SFRSYM    DATA     BYTE      P0
      000000C1H   SFRSYM    DATA     BYTE      TKCON
      00000090H   SFRSYM    DATA     BYTE      P1
      000000A0H   SFRSYM    DATA     BYTE      P2
LX51 LINKER/LOCATER V4.66.97.0                                                        06/16/2023  12:31:30  PAGE 35


      000000B0H   SFRSYM    DATA     BYTE      P3
      000000D0H.6 SFRSYM    DATA     BIT       AC
      000000C0H   SFRSYM    DATA     BYTE      P4
      000000D8H   SFRSYM    DATA     BYTE      P5
      000000A5H   SFRSYM    DATA     BYTE      SPCON
      000000A8H.7 SFRSYM    DATA     BIT       EA
      000000E1H   SFRSYM    DATA     BYTE      LXCON
      000000A9H   SFRSYM    DATA     BYTE      P6
      000000C8H.0 SFRSYM    DATA     BIT       T2P0
      000000D9H   SFRSYM    DATA     BYTE      P7
      000000C8H.1 SFRSYM    DATA     BIT       T2P1
      000000F1H   SFRSYM    DATA     BYTE      RTCON
      000000C8H.4 SFRSYM    DATA     BIT       T2R0
      000000DAH   SFRSYM    DATA     BYTE      PWMEN
      000000CFH   SFRSYM    DATA     BYTE      TKMSH
      00000086H   SFRSYM    DATA     BYTE      PWCON
      000000C8H.5 SFRSYM    DATA     BIT       T2R1
      000000CEH   SFRSYM    DATA     BYTE      TKMSL
      000000A7H   SFRSYM    DATA     BYTE      SPSTA
      00000083H   SFRSYM    DATA     BYTE      DP0H
      000000A8H   SFRSYM    DATA     BYTE      IE
      00000085H   SFRSYM    DATA     BYTE      DP1H
      000000E9H   SFRSYM    DATA     BYTE      RTCSS
      00000082H   SFRSYM    DATA     BYTE      DP0L
      000000CBH   SFRSYM    DATA     BYTE      T2CH
      000000B3H   SFRSYM    DATA     BYTE      I2CADM
      00000084H   SFRSYM    DATA     BYTE      DP1L
      000000C8H.3 SFRSYM    DATA     BIT       T2IE
      000000C3H   SFRSYM    DATA     BYTE      TKMTS
      000000CAH   SFRSYM    DATA     BYTE      T2CL
      000000B2H   SFRSYM    DATA     BYTE      I2CADR
      000000B4H   SFRSYM    DATA     BYTE      I2CCCR
      000000B8H   SFRSYM    DATA     BYTE      IP
      000000B7H   SFRSYM    DATA     BYTE      I2CFLG
      000000B5H   SFRSYM    DATA     BYTE      I2CDAT
      000000EDH   SFRSYM    DATA     BYTE      RTMSS
      000000D0H.7 SFRSYM    DATA     BIT       CY
      000000BBH   SFRSYM    DATA     BYTE      ADCFGH
      000000DCH   SFRSYM    DATA     BYTE      PWMCMAX
      000000B1H   SFRSYM    DATA     BYTE      I2CCON
      000000D1H   SFRSYM    DATA     BYTE      PWMDIVH
      000000BAH   SFRSYM    DATA     BYTE      ADCFGL
      00000081H   SFRSYM    DATA     BYTE      SP
      000000F9H   SFRSYM    DATA     BYTE      EPIE
      000000D0H.2 SFRSYM    DATA     BIT       OV
      000000FAH   SFRSYM    DATA     BYTE      EPIF
      000000DFH   SFRSYM    DATA     BYTE      PWMDIVL
      000000B6H   SFRSYM    DATA     BYTE      I2CSTA
      000000E8H   SFRSYM    DATA     BYTE      EXIE
      000000D3H   SFRSYM    DATA     BYTE      PWMDUTH
      000000C7H   SFRSYM    DATA     BYTE      TKIF
      0000008FH   SFRSYM    DATA     BYTE      IT0CON
      00000080H.0 SFRSYM    DATA     BIT       P00
      000000ECH   SFRSYM    DATA     BYTE      RTAH
      000000D2H   SFRSYM    DATA     BYTE      PWMDUTL
      0000008EH   SFRSYM    DATA     BYTE      IT1CON
      00000090H.0 SFRSYM    DATA     BIT       P10
      00000080H.1 SFRSYM    DATA     BIT       P01
      0000009DH   SFRSYM    DATA     BYTE      S1RELH
      00000087H   SFRSYM    DATA     BYTE      PCON
      000000A0H.0 SFRSYM    DATA     BIT       P20
      00000090H.1 SFRSYM    DATA     BIT       P11
      00000080H.2 SFRSYM    DATA     BIT       P02
      000000E8H.0 SFRSYM    DATA     BIT       INT2EN
      000000F4H   SFRSYM    DATA     BYTE      RTCH
LX51 LINKER/LOCATER V4.66.97.0                                                        06/16/2023  12:31:30  PAGE 36


      000000A4H   SFRSYM    DATA     BYTE      S2RELH
      000000B0H.0 SFRSYM    DATA     BIT       P30
      000000A0H.1 SFRSYM    DATA     BIT       P21
      00000090H.2 SFRSYM    DATA     BIT       P12
      00000080H.3 SFRSYM    DATA     BIT       P03
      000000E8H.1 SFRSYM    DATA     BIT       INT3EN
      000000C0H.0 SFRSYM    DATA     BIT       P40
      000000B0H.1 SFRSYM    DATA     BIT       P31
      000000A0H.2 SFRSYM    DATA     BIT       P22
      00000090H.3 SFRSYM    DATA     BIT       P13
      00000080H.4 SFRSYM    DATA     BIT       P04
      000000E8H.2 SFRSYM    DATA     BIT       INT4EN
      000000D8H.0 SFRSYM    DATA     BIT       P50
      000000C0H.1 SFRSYM    DATA     BIT       P41
      000000B0H.2 SFRSYM    DATA     BIT       P32
      000000A0H.3 SFRSYM    DATA     BIT       P23
      00000090H.4 SFRSYM    DATA     BIT       P14
      00000080H.5 SFRSYM    DATA     BIT       P05
      000000E8H.3 SFRSYM    DATA     BIT       INT5EN
      000000EBH   SFRSYM    DATA     BYTE      RTAM
      0000009CH   SFRSYM    DATA     BYTE      S1RELL
      00000089H   SFRSYM    DATA     BYTE      TMOD
      00000088H   SFRSYM    DATA     BYTE      TCON
      000000D8H.1 SFRSYM    DATA     BIT       P51
      000000C0H.2 SFRSYM    DATA     BIT       P42
      000000B0H.3 SFRSYM    DATA     BIT       P33
      000000A0H.4 SFRSYM    DATA     BIT       P24
      00000090H.5 SFRSYM    DATA     BIT       P15
      00000080H.6 SFRSYM    DATA     BIT       P06
      000000E8H.4 SFRSYM    DATA     BIT       INT6EN
      000000A3H   SFRSYM    DATA     BYTE      S2RELL
      000000D8H.2 SFRSYM    DATA     BIT       P52
      000000C0H.3 SFRSYM    DATA     BIT       P43
      000000B0H.4 SFRSYM    DATA     BIT       P34
      000000A0H.5 SFRSYM    DATA     BIT       P25
      00000090H.6 SFRSYM    DATA     BIT       P16
      00000080H.7 SFRSYM    DATA     BIT       P07
      000000E8H.5 SFRSYM    DATA     BIT       INT7EN
      000000C8H.2 SFRSYM    DATA     BIT       UCKS
      000000F8H   SFRSYM    DATA     BYTE      EXIP
      000000F3H   SFRSYM    DATA     BYTE      RTCM
      000000D8H.3 SFRSYM    DATA     BIT       P53
      000000C0H.4 SFRSYM    DATA     BIT       P44
      000000B0H.5 SFRSYM    DATA     BIT       P35
      000000A0H.6 SFRSYM    DATA     BIT       P26
      00000090H.7 SFRSYM    DATA     BIT       P17
      000000E8H.6 SFRSYM    DATA     BIT       INT8EN
      000000D8H.4 SFRSYM    DATA     BIT       P54
      000000C0H.5 SFRSYM    DATA     BIT       P45
      000000B0H.6 SFRSYM    DATA     BIT       P36
      000000A0H.7 SFRSYM    DATA     BIT       P27
      000000E8H.7 SFRSYM    DATA     BIT       INT9EN
      000000D8H.5 SFRSYM    DATA     BIT       P55
      000000C0H.6 SFRSYM    DATA     BIT       P46
      000000B0H.7 SFRSYM    DATA     BIT       P37
      000000D8H.6 SFRSYM    DATA     BIT       P56
      000000C0H.7 SFRSYM    DATA     BIT       P47
      000000EAH   SFRSYM    DATA     BYTE      RTAS
      000000AFH   SFRSYM    DATA     BYTE      HVTH
      00000095H   SFRSYM    DATA     BYTE      RCTAGH
      000000D8H.7 SFRSYM    DATA     BIT       P57
      000000F2H   SFRSYM    DATA     BYTE      RTCS
      00000088H.1 SFRSYM    DATA     BIT       IE0
      00000088H.3 SFRSYM    DATA     BIT       IE1
      00000094H   SFRSYM    DATA     BYTE      RCTAGL
LX51 LINKER/LOCATER V4.66.97.0                                                        06/16/2023  12:31:30  PAGE 37


      000000F0H   SFRSYM    DATA     BYTE      B
      000000E7H   SFRSYM    DATA     BYTE      MDUDAT
      000000DEH   SFRSYM    DATA     BYTE      PWMCFG
      000000D4H   SFRSYM    DATA     BYTE      PWMAIF
      000000E0H   SFRSYM    DATA     BYTE      ACC
      000000D5H   SFRSYM    DATA     BYTE      PWMBIF
      0000009FH   SFRSYM    DATA     BYTE      RCMSHH
      000000A8H.4 SFRSYM    DATA     BIT       ES0
      000000EFH   SFRSYM    DATA     BYTE      LVDCON
      000000E6H   SFRSYM    DATA     BYTE      MDUCON
      000000D6H   SFRSYM    DATA     BYTE      PWMCIF
      000000A8H.1 SFRSYM    DATA     BIT       ET0
      000000A8H.6 SFRSYM    DATA     BIT       ES1
      000000D7H   SFRSYM    DATA     BYTE      PWMDIF
      000000A8H.3 SFRSYM    DATA     BIT       ET1
      00000088H.5 SFRSYM    DATA     BIT       TF0
      000000FDH   SFRSYM    DATA     BYTE      IDLSTH
      000000AEH   SFRSYM    DATA     BYTE      PLLCON
      000000A8H.5 SFRSYM    DATA     BIT       ET2
      00000098H.0 SFRSYM    DATA     BIT       RI0
      00000088H.7 SFRSYM    DATA     BIT       TF1
      0000009EH   SFRSYM    DATA     BYTE      RCMSHL
      00000097H   SFRSYM    DATA     BYTE      RCMSLH
      000000C8H.7 SFRSYM    DATA     BIT       TF2
      00000098H.2 SFRSYM    DATA     BIT       RB8
      0000008CH   SFRSYM    DATA     BYTE      TH0
      000000A8H.0 SFRSYM    DATA     BIT       EX0
      00000098H.1 SFRSYM    DATA     BIT       TI0
      00000088H.0 SFRSYM    DATA     BIT       IT0
      0000008DH   SFRSYM    DATA     BYTE      TH1
      000000A8H.2 SFRSYM    DATA     BIT       EX1
      00000098H.3 SFRSYM    DATA     BIT       TB8
      00000088H.2 SFRSYM    DATA     BIT       IT1
      000000FCH   SFRSYM    DATA     BYTE      IDLSTL
      000000CDH   SFRSYM    DATA     BYTE      TH2
      000000D0H.0 SFRSYM    DATA     BIT       P
      00000096H   SFRSYM    DATA     BYTE      RCMSLL
      00000098H.7 SFRSYM    DATA     BIT       SM0
      0000008AH   SFRSYM    DATA     BYTE      TL0
      00000098H.6 SFRSYM    DATA     BIT       SM1
      000000E5H   SFRSYM    DATA     BYTE      LXDIVH
      0000008BH   SFRSYM    DATA     BYTE      TL1
      00000098H.5 SFRSYM    DATA     BIT       SM2
      000000CCH   SFRSYM    DATA     BYTE      TL2
      000000B8H.4 SFRSYM    DATA     BIT       PS0
      000000B8H.1 SFRSYM    DATA     BIT       PT0
      000000B8H.6 SFRSYM    DATA     BIT       PS1
      000000B8H.3 SFRSYM    DATA     BIT       PT1
      000000D0H.3 SFRSYM    DATA     BIT       RS0
      000000E4H   SFRSYM    DATA     BYTE      LXDIVL
      000000BDH   SFRSYM    DATA     BYTE      ADCDH
      000000B8H.5 SFRSYM    DATA     BIT       PT2
      00000088H.4 SFRSYM    DATA     BIT       TR0
      000000D0H.4 SFRSYM    DATA     BIT       RS1
      000000DDH   SFRSYM    DATA     BYTE      PWMCON
      00000088H.6 SFRSYM    DATA     BIT       TR1
      000000ADH   SFRSYM    DATA     BYTE      WDVTHH
      000000C8H.6 SFRSYM    DATA     BIT       TR2
      000000B8H.0 SFRSYM    DATA     BIT       PX0
      000000B8H.2 SFRSYM    DATA     BIT       PX1
      000000BCH   SFRSYM    DATA     BYTE      ADCDL
      000000ACH   SFRSYM    DATA     BYTE      WDVTHL
      000000DBH   SFRSYM    DATA     BYTE      PWMUPD
      00000099H   SFRSYM    DATA     BYTE      S0BUF
      0000009BH   SFRSYM    DATA     BYTE      S1BUF
LX51 LINKER/LOCATER V4.66.97.0                                                        06/16/2023  12:31:30  PAGE 38


      000000A2H   SFRSYM    DATA     BYTE      S2BUF
      00000098H   SFRSYM    DATA     BYTE      S0CON
      00000098H.4 SFRSYM    DATA     BIT       REN
      0000009AH   SFRSYM    DATA     BYTE      S1CON
      000000B9H   SFRSYM    DATA     BYTE      ADCON
      000000A1H   SFRSYM    DATA     BYTE      S2CON
      000000D0H.1 SFRSYM    DATA     BIT       DPS
      000000C9H   SFRSYM    DATA     BYTE      T2MOD
      000000C8H   SFRSYM    DATA     BYTE      T2CON
      000000FFH   SFRSYM    DATA     BYTE      STPSTH
      000000BFH   SFRSYM    DATA     BYTE      CKMIF
      000000FEH   SFRSYM    DATA     BYTE      STPSTL
      000000C2H   SFRSYM    DATA     BYTE      TKCFG
      00000093H   SFRSYM    DATA     BYTE      VCKDH
      000000D0H.5 SFRSYM    DATA     BIT       F0
      000000E2H   SFRSYM    DATA     BYTE      LXCFG
      000000ABH   SFRSYM    DATA     BYTE      WDFLG
      00000092H   SFRSYM    DATA     BYTE      VCKDL
      000000FBH   SFRSYM    DATA     BYTE      EPCON
      000000F6H   SFRSYM    DATA     BYTE      RTCDH
      000000C6H   SFRSYM    DATA     BYTE      ATKMH
      00000091H   SFRSYM    DATA     BYTE      RCCON
      000000F7H   SFRSYM    DATA     BYTE      INDEX
      000000EEH   SFRSYM    DATA     BYTE      RTCIF
      000000BEH   SFRSYM    DATA     BYTE      CKMON
      000000F5H   SFRSYM    DATA     BYTE      RTCDL
      000000D0H   SFRSYM    DATA     BYTE      PSW
      000000C5H   SFRSYM    DATA     BYTE      ATKML
      000000AAH   SFRSYM    DATA     BYTE      WDCON
      000000A6H   SFRSYM    DATA     BYTE      SPDAT
      00000003H   SYMBOL    DATA     BYTE      i

      ---         MODULE    ---      ---       GPIO
      000000E3H   SFRSYM    DATA     BYTE      LXDAT
      000000C4H   SFRSYM    DATA     BYTE      TKCHS
      00000080H   SFRSYM    DATA     BYTE      P0
      000000C1H   SFRSYM    DATA     BYTE      TKCON
      00000090H   SFRSYM    DATA     BYTE      P1
      000000A0H   SFRSYM    DATA     BYTE      P2
      000000B0H   SFRSYM    DATA     BYTE      P3
      000000D0H.6 SFRSYM    DATA     BIT       AC
      000000C0H   SFRSYM    DATA     BYTE      P4
      000000D8H   SFRSYM    DATA     BYTE      P5
      000000A5H   SFRSYM    DATA     BYTE      SPCON
      000000A8H.7 SFRSYM    DATA     BIT       EA
      000000E1H   SFRSYM    DATA     BYTE      LXCON
      000000A9H   SFRSYM    DATA     BYTE      P6
      000000C8H.0 SFRSYM    DATA     BIT       T2P0
      000000D9H   SFRSYM    DATA     BYTE      P7
      000000C8H.1 SFRSYM    DATA     BIT       T2P1
      000000F1H   SFRSYM    DATA     BYTE      RTCON
      000000C8H.4 SFRSYM    DATA     BIT       T2R0
      000000DAH   SFRSYM    DATA     BYTE      PWMEN
      000000CFH   SFRSYM    DATA     BYTE      TKMSH
      00000086H   SFRSYM    DATA     BYTE      PWCON
      000000C8H.5 SFRSYM    DATA     BIT       T2R1
      000000CEH   SFRSYM    DATA     BYTE      TKMSL
      000000A7H   SFRSYM    DATA     BYTE      SPSTA
      00000083H   SFRSYM    DATA     BYTE      DP0H
      000000A8H   SFRSYM    DATA     BYTE      IE
      00000085H   SFRSYM    DATA     BYTE      DP1H
      000000E9H   SFRSYM    DATA     BYTE      RTCSS
      00000082H   SFRSYM    DATA     BYTE      DP0L
      000000CBH   SFRSYM    DATA     BYTE      T2CH
      000000B3H   SFRSYM    DATA     BYTE      I2CADM
LX51 LINKER/LOCATER V4.66.97.0                                                        06/16/2023  12:31:30  PAGE 39


      00000084H   SFRSYM    DATA     BYTE      DP1L
      000000C8H.3 SFRSYM    DATA     BIT       T2IE
      000000C3H   SFRSYM    DATA     BYTE      TKMTS
      000000CAH   SFRSYM    DATA     BYTE      T2CL
      000000B2H   SFRSYM    DATA     BYTE      I2CADR
      000000B4H   SFRSYM    DATA     BYTE      I2CCCR
      000000B8H   SFRSYM    DATA     BYTE      IP
      000000B7H   SFRSYM    DATA     BYTE      I2CFLG
      000000B5H   SFRSYM    DATA     BYTE      I2CDAT
      000000EDH   SFRSYM    DATA     BYTE      RTMSS
      000000D0H.7 SFRSYM    DATA     BIT       CY
      000000BBH   SFRSYM    DATA     BYTE      ADCFGH
      000000DCH   SFRSYM    DATA     BYTE      PWMCMAX
      000000B1H   SFRSYM    DATA     BYTE      I2CCON
      000000D1H   SFRSYM    DATA     BYTE      PWMDIVH
      000000BAH   SFRSYM    DATA     BYTE      ADCFGL
      00000081H   SFRSYM    DATA     BYTE      SP
      000000F9H   SFRSYM    DATA     BYTE      EPIE
      000000D0H.2 SFRSYM    DATA     BIT       OV
      000000FAH   SFRSYM    DATA     BYTE      EPIF
      000000DFH   SFRSYM    DATA     BYTE      PWMDIVL
      000000B6H   SFRSYM    DATA     BYTE      I2CSTA
      000000E8H   SFRSYM    DATA     BYTE      EXIE
      000000D3H   SFRSYM    DATA     BYTE      PWMDUTH
      000000C7H   SFRSYM    DATA     BYTE      TKIF
      0000008FH   SFRSYM    DATA     BYTE      IT0CON
      00000080H.0 SFRSYM    DATA     BIT       P00
      000000ECH   SFRSYM    DATA     BYTE      RTAH
      000000D2H   SFRSYM    DATA     BYTE      PWMDUTL
      0000008EH   SFRSYM    DATA     BYTE      IT1CON
      00000090H.0 SFRSYM    DATA     BIT       P10
      00000080H.1 SFRSYM    DATA     BIT       P01
      0000009DH   SFRSYM    DATA     BYTE      S1RELH
      00000087H   SFRSYM    DATA     BYTE      PCON
      000000A0H.0 SFRSYM    DATA     BIT       P20
      00000090H.1 SFRSYM    DATA     BIT       P11
      00000080H.2 SFRSYM    DATA     BIT       P02
      000000E8H.0 SFRSYM    DATA     BIT       INT2EN
      000000F4H   SFRSYM    DATA     BYTE      RTCH
      000000A4H   SFRSYM    DATA     BYTE      S2RELH
      000000B0H.0 SFRSYM    DATA     BIT       P30
      000000A0H.1 SFRSYM    DATA     BIT       P21
      00000090H.2 SFRSYM    DATA     BIT       P12
      00000080H.3 SFRSYM    DATA     BIT       P03
      000000E8H.1 SFRSYM    DATA     BIT       INT3EN
      000000C0H.0 SFRSYM    DATA     BIT       P40
      000000B0H.1 SFRSYM    DATA     BIT       P31
      000000A0H.2 SFRSYM    DATA     BIT       P22
      00000090H.3 SFRSYM    DATA     BIT       P13
      00000080H.4 SFRSYM    DATA     BIT       P04
      000000E8H.2 SFRSYM    DATA     BIT       INT4EN
      000000D8H.0 SFRSYM    DATA     BIT       P50
      000000C0H.1 SFRSYM    DATA     BIT       P41
      000000B0H.2 SFRSYM    DATA     BIT       P32
      000000A0H.3 SFRSYM    DATA     BIT       P23
      00000090H.4 SFRSYM    DATA     BIT       P14
      00000080H.5 SFRSYM    DATA     BIT       P05
      000000E8H.3 SFRSYM    DATA     BIT       INT5EN
      000000EBH   SFRSYM    DATA     BYTE      RTAM
      0000009CH   SFRSYM    DATA     BYTE      S1RELL
      00000089H   SFRSYM    DATA     BYTE      TMOD
      00000088H   SFRSYM    DATA     BYTE      TCON
      000000D8H.1 SFRSYM    DATA     BIT       P51
      000000C0H.2 SFRSYM    DATA     BIT       P42
      000000B0H.3 SFRSYM    DATA     BIT       P33
LX51 LINKER/LOCATER V4.66.97.0                                                        06/16/2023  12:31:30  PAGE 40


      000000A0H.4 SFRSYM    DATA     BIT       P24
      00000090H.5 SFRSYM    DATA     BIT       P15
      00000080H.6 SFRSYM    DATA     BIT       P06
      000000E8H.4 SFRSYM    DATA     BIT       INT6EN
      000000A3H   SFRSYM    DATA     BYTE      S2RELL
      000000D8H.2 SFRSYM    DATA     BIT       P52
      000000C0H.3 SFRSYM    DATA     BIT       P43
      000000B0H.4 SFRSYM    DATA     BIT       P34
      000000A0H.5 SFRSYM    DATA     BIT       P25
      00000090H.6 SFRSYM    DATA     BIT       P16
      00000080H.7 SFRSYM    DATA     BIT       P07
      000000E8H.5 SFRSYM    DATA     BIT       INT7EN
      000000C8H.2 SFRSYM    DATA     BIT       UCKS
      000000F8H   SFRSYM    DATA     BYTE      EXIP
      000000F3H   SFRSYM    DATA     BYTE      RTCM
      000000D8H.3 SFRSYM    DATA     BIT       P53
      000000C0H.4 SFRSYM    DATA     BIT       P44
      000000B0H.5 SFRSYM    DATA     BIT       P35
      000000A0H.6 SFRSYM    DATA     BIT       P26
      00000090H.7 SFRSYM    DATA     BIT       P17
      000000E8H.6 SFRSYM    DATA     BIT       INT8EN
      000000D8H.4 SFRSYM    DATA     BIT       P54
      000000C0H.5 SFRSYM    DATA     BIT       P45
      000000B0H.6 SFRSYM    DATA     BIT       P36
      000000A0H.7 SFRSYM    DATA     BIT       P27
      000000E8H.7 SFRSYM    DATA     BIT       INT9EN
      000000D8H.5 SFRSYM    DATA     BIT       P55
      000000C0H.6 SFRSYM    DATA     BIT       P46
      000000B0H.7 SFRSYM    DATA     BIT       P37
      000000D8H.6 SFRSYM    DATA     BIT       P56
      000000C0H.7 SFRSYM    DATA     BIT       P47
      000000EAH   SFRSYM    DATA     BYTE      RTAS
      000000AFH   SFRSYM    DATA     BYTE      HVTH
      00000095H   SFRSYM    DATA     BYTE      RCTAGH
      000000D8H.7 SFRSYM    DATA     BIT       P57
      000000F2H   SFRSYM    DATA     BYTE      RTCS
      00000088H.1 SFRSYM    DATA     BIT       IE0
      00000088H.3 SFRSYM    DATA     BIT       IE1
      00000094H   SFRSYM    DATA     BYTE      RCTAGL
      000000F0H   SFRSYM    DATA     BYTE      B
      000000E7H   SFRSYM    DATA     BYTE      MDUDAT
      000000DEH   SFRSYM    DATA     BYTE      PWMCFG
      000000D4H   SFRSYM    DATA     BYTE      PWMAIF
      000000E0H   SFRSYM    DATA     BYTE      ACC
      000000D5H   SFRSYM    DATA     BYTE      PWMBIF
      0000009FH   SFRSYM    DATA     BYTE      RCMSHH
      000000A8H.4 SFRSYM    DATA     BIT       ES0
      000000EFH   SFRSYM    DATA     BYTE      LVDCON
      000000E6H   SFRSYM    DATA     BYTE      MDUCON
      000000D6H   SFRSYM    DATA     BYTE      PWMCIF
      000000A8H.1 SFRSYM    DATA     BIT       ET0
      000000A8H.6 SFRSYM    DATA     BIT       ES1
      000000D7H   SFRSYM    DATA     BYTE      PWMDIF
      000000A8H.3 SFRSYM    DATA     BIT       ET1
      00000088H.5 SFRSYM    DATA     BIT       TF0
      000000FDH   SFRSYM    DATA     BYTE      IDLSTH
      000000AEH   SFRSYM    DATA     BYTE      PLLCON
      000000A8H.5 SFRSYM    DATA     BIT       ET2
      00000098H.0 SFRSYM    DATA     BIT       RI0
      00000088H.7 SFRSYM    DATA     BIT       TF1
      0000009EH   SFRSYM    DATA     BYTE      RCMSHL
      00000097H   SFRSYM    DATA     BYTE      RCMSLH
      000000C8H.7 SFRSYM    DATA     BIT       TF2
      00000098H.2 SFRSYM    DATA     BIT       RB8
      0000008CH   SFRSYM    DATA     BYTE      TH0
LX51 LINKER/LOCATER V4.66.97.0                                                        06/16/2023  12:31:30  PAGE 41


      000000A8H.0 SFRSYM    DATA     BIT       EX0
      00000098H.1 SFRSYM    DATA     BIT       TI0
      00000088H.0 SFRSYM    DATA     BIT       IT0
      0000008DH   SFRSYM    DATA     BYTE      TH1
      000000A8H.2 SFRSYM    DATA     BIT       EX1
      00000098H.3 SFRSYM    DATA     BIT       TB8
      00000088H.2 SFRSYM    DATA     BIT       IT1
      000000FCH   SFRSYM    DATA     BYTE      IDLSTL
      000000CDH   SFRSYM    DATA     BYTE      TH2
      000000D0H.0 SFRSYM    DATA     BIT       P
      00000096H   SFRSYM    DATA     BYTE      RCMSLL
      00000098H.7 SFRSYM    DATA     BIT       SM0
      0000008AH   SFRSYM    DATA     BYTE      TL0
      00000098H.6 SFRSYM    DATA     BIT       SM1
      000000E5H   SFRSYM    DATA     BYTE      LXDIVH
      0000008BH   SFRSYM    DATA     BYTE      TL1
      00000098H.5 SFRSYM    DATA     BIT       SM2
      000000CCH   SFRSYM    DATA     BYTE      TL2
      000000B8H.4 SFRSYM    DATA     BIT       PS0
      000000B8H.1 SFRSYM    DATA     BIT       PT0
      000000B8H.6 SFRSYM    DATA     BIT       PS1
      000000B8H.3 SFRSYM    DATA     BIT       PT1
      000000D0H.3 SFRSYM    DATA     BIT       RS0
      000000E4H   SFRSYM    DATA     BYTE      LXDIVL
      000000BDH   SFRSYM    DATA     BYTE      ADCDH
      000000B8H.5 SFRSYM    DATA     BIT       PT2
      00000088H.4 SFRSYM    DATA     BIT       TR0
      000000D0H.4 SFRSYM    DATA     BIT       RS1
      000000DDH   SFRSYM    DATA     BYTE      PWMCON
      00000088H.6 SFRSYM    DATA     BIT       TR1
      000000ADH   SFRSYM    DATA     BYTE      WDVTHH
      000000C8H.6 SFRSYM    DATA     BIT       TR2
      000000B8H.0 SFRSYM    DATA     BIT       PX0
      000000B8H.2 SFRSYM    DATA     BIT       PX1
      000000BCH   SFRSYM    DATA     BYTE      ADCDL
      000000ACH   SFRSYM    DATA     BYTE      WDVTHL
      000000DBH   SFRSYM    DATA     BYTE      PWMUPD
      00000099H   SFRSYM    DATA     BYTE      S0BUF
      0000009BH   SFRSYM    DATA     BYTE      S1BUF
      000000A2H   SFRSYM    DATA     BYTE      S2BUF
      00000098H   SFRSYM    DATA     BYTE      S0CON
      00000098H.4 SFRSYM    DATA     BIT       REN
      0000009AH   SFRSYM    DATA     BYTE      S1CON
      000000B9H   SFRSYM    DATA     BYTE      ADCON
      000000A1H   SFRSYM    DATA     BYTE      S2CON
      000000D0H.1 SFRSYM    DATA     BIT       DPS
      000000C9H   SFRSYM    DATA     BYTE      T2MOD
      000000C8H   SFRSYM    DATA     BYTE      T2CON
      000000FFH   SFRSYM    DATA     BYTE      STPSTH
      000000BFH   SFRSYM    DATA     BYTE      CKMIF
      000000FEH   SFRSYM    DATA     BYTE      STPSTL
      000000C2H   SFRSYM    DATA     BYTE      TKCFG
      00000093H   SFRSYM    DATA     BYTE      VCKDH
      000000D0H.5 SFRSYM    DATA     BIT       F0
      000000E2H   SFRSYM    DATA     BYTE      LXCFG
      000000ABH   SFRSYM    DATA     BYTE      WDFLG
      00000092H   SFRSYM    DATA     BYTE      VCKDL
      000000FBH   SFRSYM    DATA     BYTE      EPCON
      000000F6H   SFRSYM    DATA     BYTE      RTCDH
      000000C6H   SFRSYM    DATA     BYTE      ATKMH
      00000091H   SFRSYM    DATA     BYTE      RCCON
      000000F7H   SFRSYM    DATA     BYTE      INDEX
      000000EEH   SFRSYM    DATA     BYTE      RTCIF
      000000BEH   SFRSYM    DATA     BYTE      CKMON
      000000F5H   SFRSYM    DATA     BYTE      RTCDL
LX51 LINKER/LOCATER V4.66.97.0                                                        06/16/2023  12:31:30  PAGE 42


      000000D0H   SFRSYM    DATA     BYTE      PSW
      000000C5H   SFRSYM    DATA     BYTE      ATKML
      000000AAH   SFRSYM    DATA     BYTE      WDCON
      000000A6H   SFRSYM    DATA     BYTE      SPDAT

      ---         MODULE    ---      ---       GXHTC
      00000014H   PUBLIC    DATA     FLOAT     GXHTC3_Humidity
      00000010H   PUBLIC    DATA     FLOAT     GXHTC3_temp
      0000000CH   PUBLIC    DATA     FLOAT     GXHTC3_humi
      00000008H   PUBLIC    DATA     FLOAT     GXHTC3_Temperature
      01000E58H   PUBLIC    CODE     ---       getgxth30
      01000F18H   PUBLIC    CODE     ---       _al_float_buffer_sort
      01000CE9H   PUBLIC    CODE     ---       _GXHTC3_read_result
      0100114FH   PUBLIC    CODE     ---       _GXHTC3_Read_Byte
      01001101H   PUBLIC    CODE     ---       _GXHTC3_Send_Byte
      0100119AH   PUBLIC    CODE     ---       GXHTC3_Wait_Ack
      010012CEH   PUBLIC    CODE     ---       GXHTC3_NAck
      010012B4H   PUBLIC    CODE     ---       GXHTC3_Ack
      010012E8H   PUBLIC    CODE     ---       GXHTC3_StoP
      0100129AH   PUBLIC    CODE     ---       GXHTC3_StarT
      0100132FH   PUBLIC    CODE     ---       GXHTC3_SDA_IN
      01001328H   PUBLIC    CODE     ---       GXHTC3_SDA_OUT
      01001319H   PUBLIC    CODE     ---       GXHTC3_INIT
      000000E3H   SFRSYM    DATA     BYTE      LXDAT
      000000C4H   SFRSYM    DATA     BYTE      TKCHS
      00000080H   SFRSYM    DATA     BYTE      P0
      000000C1H   SFRSYM    DATA     BYTE      TKCON
      00000090H   SFRSYM    DATA     BYTE      P1
      000000A0H   SFRSYM    DATA     BYTE      P2
      000000B0H   SFRSYM    DATA     BYTE      P3
      000000D0H.6 SFRSYM    DATA     BIT       AC
      000000C0H   SFRSYM    DATA     BYTE      P4
      000000D8H   SFRSYM    DATA     BYTE      P5
      000000A5H   SFRSYM    DATA     BYTE      SPCON
      000000A8H.7 SFRSYM    DATA     BIT       EA
      000000E1H   SFRSYM    DATA     BYTE      LXCON
      000000A9H   SFRSYM    DATA     BYTE      P6
      000000C8H.0 SFRSYM    DATA     BIT       T2P0
      000000D9H   SFRSYM    DATA     BYTE      P7
      000000C8H.1 SFRSYM    DATA     BIT       T2P1
      000000F1H   SFRSYM    DATA     BYTE      RTCON
      000000C8H.4 SFRSYM    DATA     BIT       T2R0
      000000DAH   SFRSYM    DATA     BYTE      PWMEN
      000000CFH   SFRSYM    DATA     BYTE      TKMSH
      00000086H   SFRSYM    DATA     BYTE      PWCON
      000000C8H.5 SFRSYM    DATA     BIT       T2R1
      000000CEH   SFRSYM    DATA     BYTE      TKMSL
      000000A7H   SFRSYM    DATA     BYTE      SPSTA
      00000083H   SFRSYM    DATA     BYTE      DP0H
      000000A8H   SFRSYM    DATA     BYTE      IE
      00000085H   SFRSYM    DATA     BYTE      DP1H
      000000E9H   SFRSYM    DATA     BYTE      RTCSS
      00000082H   SFRSYM    DATA     BYTE      DP0L
      000000CBH   SFRSYM    DATA     BYTE      T2CH
      000000B3H   SFRSYM    DATA     BYTE      I2CADM
      00000084H   SFRSYM    DATA     BYTE      DP1L
      000000C8H.3 SFRSYM    DATA     BIT       T2IE
      000000C3H   SFRSYM    DATA     BYTE      TKMTS
      000000CAH   SFRSYM    DATA     BYTE      T2CL
      000000B2H   SFRSYM    DATA     BYTE      I2CADR
      000000B4H   SFRSYM    DATA     BYTE      I2CCCR
      000000B8H   SFRSYM    DATA     BYTE      IP
      000000B7H   SFRSYM    DATA     BYTE      I2CFLG
      000000B5H   SFRSYM    DATA     BYTE      I2CDAT
      000000EDH   SFRSYM    DATA     BYTE      RTMSS
LX51 LINKER/LOCATER V4.66.97.0                                                        06/16/2023  12:31:30  PAGE 43


      000000D0H.7 SFRSYM    DATA     BIT       CY
      000000BBH   SFRSYM    DATA     BYTE      ADCFGH
      000000DCH   SFRSYM    DATA     BYTE      PWMCMAX
      000000B1H   SFRSYM    DATA     BYTE      I2CCON
      000000D1H   SFRSYM    DATA     BYTE      PWMDIVH
      000000BAH   SFRSYM    DATA     BYTE      ADCFGL
      00000081H   SFRSYM    DATA     BYTE      SP
      000000F9H   SFRSYM    DATA     BYTE      EPIE
      000000D0H.2 SFRSYM    DATA     BIT       OV
      000000FAH   SFRSYM    DATA     BYTE      EPIF
      000000DFH   SFRSYM    DATA     BYTE      PWMDIVL
      000000B6H   SFRSYM    DATA     BYTE      I2CSTA
      000000E8H   SFRSYM    DATA     BYTE      EXIE
      000000D3H   SFRSYM    DATA     BYTE      PWMDUTH
      000000C7H   SFRSYM    DATA     BYTE      TKIF
      0000008FH   SFRSYM    DATA     BYTE      IT0CON
      00000080H.0 SFRSYM    DATA     BIT       P00
      000000ECH   SFRSYM    DATA     BYTE      RTAH
      000000D2H   SFRSYM    DATA     BYTE      PWMDUTL
      0000008EH   SFRSYM    DATA     BYTE      IT1CON
      00000090H.0 SFRSYM    DATA     BIT       P10
      00000080H.1 SFRSYM    DATA     BIT       P01
      0000009DH   SFRSYM    DATA     BYTE      S1RELH
      00000087H   SFRSYM    DATA     BYTE      PCON
      000000A0H.0 SFRSYM    DATA     BIT       P20
      00000090H.1 SFRSYM    DATA     BIT       P11
      00000080H.2 SFRSYM    DATA     BIT       P02
      000000E8H.0 SFRSYM    DATA     BIT       INT2EN
      000000F4H   SFRSYM    DATA     BYTE      RTCH
      000000A4H   SFRSYM    DATA     BYTE      S2RELH
      000000B0H.0 SFRSYM    DATA     BIT       P30
      000000A0H.1 SFRSYM    DATA     BIT       P21
      00000090H.2 SFRSYM    DATA     BIT       P12
      00000080H.3 SFRSYM    DATA     BIT       P03
      000000E8H.1 SFRSYM    DATA     BIT       INT3EN
      000000C0H.0 SFRSYM    DATA     BIT       P40
      000000B0H.1 SFRSYM    DATA     BIT       P31
      000000A0H.2 SFRSYM    DATA     BIT       P22
      00000090H.3 SFRSYM    DATA     BIT       P13
      00000080H.4 SFRSYM    DATA     BIT       P04
      000000E8H.2 SFRSYM    DATA     BIT       INT4EN
      000000D8H.0 SFRSYM    DATA     BIT       P50
      000000C0H.1 SFRSYM    DATA     BIT       P41
      000000B0H.2 SFRSYM    DATA     BIT       P32
      000000A0H.3 SFRSYM    DATA     BIT       P23
      00000090H.4 SFRSYM    DATA     BIT       P14
      00000080H.5 SFRSYM    DATA     BIT       P05
      000000E8H.3 SFRSYM    DATA     BIT       INT5EN
      000000EBH   SFRSYM    DATA     BYTE      RTAM
      0000009CH   SFRSYM    DATA     BYTE      S1RELL
      00000089H   SFRSYM    DATA     BYTE      TMOD
      00000088H   SFRSYM    DATA     BYTE      TCON
      000000D8H.1 SFRSYM    DATA     BIT       P51
      000000C0H.2 SFRSYM    DATA     BIT       P42
      000000B0H.3 SFRSYM    DATA     BIT       P33
      000000A0H.4 SFRSYM    DATA     BIT       P24
      00000090H.5 SFRSYM    DATA     BIT       P15
      00000080H.6 SFRSYM    DATA     BIT       P06
      000000E8H.4 SFRSYM    DATA     BIT       INT6EN
      000000A3H   SFRSYM    DATA     BYTE      S2RELL
      000000D8H.2 SFRSYM    DATA     BIT       P52
      000000C0H.3 SFRSYM    DATA     BIT       P43
      000000B0H.4 SFRSYM    DATA     BIT       P34
      000000A0H.5 SFRSYM    DATA     BIT       P25
      00000090H.6 SFRSYM    DATA     BIT       P16
LX51 LINKER/LOCATER V4.66.97.0                                                        06/16/2023  12:31:30  PAGE 44


      00000080H.7 SFRSYM    DATA     BIT       P07
      000000E8H.5 SFRSYM    DATA     BIT       INT7EN
      000000C8H.2 SFRSYM    DATA     BIT       UCKS
      000000F8H   SFRSYM    DATA     BYTE      EXIP
      000000F3H   SFRSYM    DATA     BYTE      RTCM
      000000D8H.3 SFRSYM    DATA     BIT       P53
      000000C0H.4 SFRSYM    DATA     BIT       P44
      000000B0H.5 SFRSYM    DATA     BIT       P35
      000000A0H.6 SFRSYM    DATA     BIT       P26
      00000090H.7 SFRSYM    DATA     BIT       P17
      000000E8H.6 SFRSYM    DATA     BIT       INT8EN
      000000D8H.4 SFRSYM    DATA     BIT       P54
      000000C0H.5 SFRSYM    DATA     BIT       P45
      000000B0H.6 SFRSYM    DATA     BIT       P36
      000000A0H.7 SFRSYM    DATA     BIT       P27
      000000E8H.7 SFRSYM    DATA     BIT       INT9EN
      000000D8H.5 SFRSYM    DATA     BIT       P55
      000000C0H.6 SFRSYM    DATA     BIT       P46
      000000B0H.7 SFRSYM    DATA     BIT       P37
      000000D8H.6 SFRSYM    DATA     BIT       P56
      000000C0H.7 SFRSYM    DATA     BIT       P47
      000000EAH   SFRSYM    DATA     BYTE      RTAS
      000000AFH   SFRSYM    DATA     BYTE      HVTH
      00000095H   SFRSYM    DATA     BYTE      RCTAGH
      000000D8H.7 SFRSYM    DATA     BIT       P57
      000000F2H   SFRSYM    DATA     BYTE      RTCS
      00000088H.1 SFRSYM    DATA     BIT       IE0
      00000088H.3 SFRSYM    DATA     BIT       IE1
      00000094H   SFRSYM    DATA     BYTE      RCTAGL
      000000F0H   SFRSYM    DATA     BYTE      B
      000000E7H   SFRSYM    DATA     BYTE      MDUDAT
      000000DEH   SFRSYM    DATA     BYTE      PWMCFG
      000000D4H   SFRSYM    DATA     BYTE      PWMAIF
      000000E0H   SFRSYM    DATA     BYTE      ACC
      000000D5H   SFRSYM    DATA     BYTE      PWMBIF
      0000009FH   SFRSYM    DATA     BYTE      RCMSHH
      000000A8H.4 SFRSYM    DATA     BIT       ES0
      000000EFH   SFRSYM    DATA     BYTE      LVDCON
      000000E6H   SFRSYM    DATA     BYTE      MDUCON
      000000D6H   SFRSYM    DATA     BYTE      PWMCIF
      000000A8H.1 SFRSYM    DATA     BIT       ET0
      000000A8H.6 SFRSYM    DATA     BIT       ES1
      000000D7H   SFRSYM    DATA     BYTE      PWMDIF
      000000A8H.3 SFRSYM    DATA     BIT       ET1
      00000088H.5 SFRSYM    DATA     BIT       TF0
      000000FDH   SFRSYM    DATA     BYTE      IDLSTH
      000000AEH   SFRSYM    DATA     BYTE      PLLCON
      000000A8H.5 SFRSYM    DATA     BIT       ET2
      00000098H.0 SFRSYM    DATA     BIT       RI0
      00000088H.7 SFRSYM    DATA     BIT       TF1
      0000009EH   SFRSYM    DATA     BYTE      RCMSHL
      00000097H   SFRSYM    DATA     BYTE      RCMSLH
      000000C8H.7 SFRSYM    DATA     BIT       TF2
      00000098H.2 SFRSYM    DATA     BIT       RB8
      0000008CH   SFRSYM    DATA     BYTE      TH0
      000000A8H.0 SFRSYM    DATA     BIT       EX0
      00000098H.1 SFRSYM    DATA     BIT       TI0
      00000088H.0 SFRSYM    DATA     BIT       IT0
      0000008DH   SFRSYM    DATA     BYTE      TH1
      000000A8H.2 SFRSYM    DATA     BIT       EX1
      00000098H.3 SFRSYM    DATA     BIT       TB8
      00000088H.2 SFRSYM    DATA     BIT       IT1
      000000FCH   SFRSYM    DATA     BYTE      IDLSTL
      000000CDH   SFRSYM    DATA     BYTE      TH2
      000000D0H.0 SFRSYM    DATA     BIT       P
LX51 LINKER/LOCATER V4.66.97.0                                                        06/16/2023  12:31:30  PAGE 45


      00000096H   SFRSYM    DATA     BYTE      RCMSLL
      00000098H.7 SFRSYM    DATA     BIT       SM0
      0000008AH   SFRSYM    DATA     BYTE      TL0
      00000098H.6 SFRSYM    DATA     BIT       SM1
      000000E5H   SFRSYM    DATA     BYTE      LXDIVH
      0000008BH   SFRSYM    DATA     BYTE      TL1
      00000098H.5 SFRSYM    DATA     BIT       SM2
      000000CCH   SFRSYM    DATA     BYTE      TL2
      000000B8H.4 SFRSYM    DATA     BIT       PS0
      000000B8H.1 SFRSYM    DATA     BIT       PT0
      000000B8H.6 SFRSYM    DATA     BIT       PS1
      000000B8H.3 SFRSYM    DATA     BIT       PT1
      000000D0H.3 SFRSYM    DATA     BIT       RS0
      000000E4H   SFRSYM    DATA     BYTE      LXDIVL
      000000BDH   SFRSYM    DATA     BYTE      ADCDH
      000000B8H.5 SFRSYM    DATA     BIT       PT2
      00000088H.4 SFRSYM    DATA     BIT       TR0
      000000D0H.4 SFRSYM    DATA     BIT       RS1
      000000DDH   SFRSYM    DATA     BYTE      PWMCON
      00000088H.6 SFRSYM    DATA     BIT       TR1
      000000ADH   SFRSYM    DATA     BYTE      WDVTHH
      000000C8H.6 SFRSYM    DATA     BIT       TR2
      000000B8H.0 SFRSYM    DATA     BIT       PX0
      000000B8H.2 SFRSYM    DATA     BIT       PX1
      000000BCH   SFRSYM    DATA     BYTE      ADCDL
      000000ACH   SFRSYM    DATA     BYTE      WDVTHL
      000000DBH   SFRSYM    DATA     BYTE      PWMUPD
      00000099H   SFRSYM    DATA     BYTE      S0BUF
      0000009BH   SFRSYM    DATA     BYTE      S1BUF
      000000A2H   SFRSYM    DATA     BYTE      S2BUF
      00000098H   SFRSYM    DATA     BYTE      S0CON
      00000098H.4 SFRSYM    DATA     BIT       REN
      0000009AH   SFRSYM    DATA     BYTE      S1CON
      000000B9H   SFRSYM    DATA     BYTE      ADCON
      000000A1H   SFRSYM    DATA     BYTE      S2CON
      000000D0H.1 SFRSYM    DATA     BIT       DPS
      000000C9H   SFRSYM    DATA     BYTE      T2MOD
      000000C8H   SFRSYM    DATA     BYTE      T2CON
      000000FFH   SFRSYM    DATA     BYTE      STPSTH
      000000BFH   SFRSYM    DATA     BYTE      CKMIF
      000000FEH   SFRSYM    DATA     BYTE      STPSTL
      000000C2H   SFRSYM    DATA     BYTE      TKCFG
      00000093H   SFRSYM    DATA     BYTE      VCKDH
      000000D0H.5 SFRSYM    DATA     BIT       F0
      000000E2H   SFRSYM    DATA     BYTE      LXCFG
      000000ABH   SFRSYM    DATA     BYTE      WDFLG
      00000092H   SFRSYM    DATA     BYTE      VCKDL
      000000FBH   SFRSYM    DATA     BYTE      EPCON
      000000F6H   SFRSYM    DATA     BYTE      RTCDH
      000000C6H   SFRSYM    DATA     BYTE      ATKMH
      00000091H   SFRSYM    DATA     BYTE      RCCON
      000000F7H   SFRSYM    DATA     BYTE      INDEX
      000000EEH   SFRSYM    DATA     BYTE      RTCIF
      000000BEH   SFRSYM    DATA     BYTE      CKMON
      000000F5H   SFRSYM    DATA     BYTE      RTCDL
      000000D0H   SFRSYM    DATA     BYTE      PSW
      000000C5H   SFRSYM    DATA     BYTE      ATKML
      000000AAH   SFRSYM    DATA     BYTE      WDCON
      000000A6H   SFRSYM    DATA     BYTE      SPDAT

      01001319H   BLOCK     CODE     ---       LVL=0
      01001319H   LINE      CODE     ---       #29
      01001319H   LINE      CODE     ---       #30
      01001319H   LINE      CODE     ---       #31
      0100131FH   LINE      CODE     ---       #32
LX51 LINKER/LOCATER V4.66.97.0                                                        06/16/2023  12:31:30  PAGE 46


      01001323H   LINE      CODE     ---       #34
      01001325H   LINE      CODE     ---       #35
      01001327H   LINE      CODE     ---       #36
      ---         BLOCKEND  ---      ---       LVL=0

      01001328H   BLOCK     CODE     ---       LVL=0
      01001328H   LINE      CODE     ---       #44
      01001328H   LINE      CODE     ---       #45
      01001328H   LINE      CODE     ---       #46
      0100132EH   LINE      CODE     ---       #48
      ---         BLOCKEND  ---      ---       LVL=0

      0100132FH   BLOCK     CODE     ---       LVL=0
      0100132FH   LINE      CODE     ---       #57
      0100132FH   LINE      CODE     ---       #58
      0100132FH   LINE      CODE     ---       #59
      01001335H   LINE      CODE     ---       #60
      ---         BLOCKEND  ---      ---       LVL=0

      0100129AH   BLOCK     CODE     ---       LVL=0
      0100129AH   LINE      CODE     ---       #67
      0100129AH   LINE      CODE     ---       #68
      0100129AH   LINE      CODE     ---       #69
      0100129DH   LINE      CODE     ---       #71
      0100129FH   LINE      CODE     ---       #72
      010012A1H   LINE      CODE     ---       #73
      010012A8H   LINE      CODE     ---       #74
      010012AAH   LINE      CODE     ---       #75
      010012B1H   LINE      CODE     ---       #76
      010012B3H   LINE      CODE     ---       #77
      ---         BLOCKEND  ---      ---       LVL=0

      010012E8H   BLOCK     CODE     ---       LVL=0
      010012E8H   LINE      CODE     ---       #80
      010012E8H   LINE      CODE     ---       #81
      010012E8H   LINE      CODE     ---       #82
      010012EBH   LINE      CODE     ---       #84
      010012EDH   LINE      CODE     ---       #85
      010012EFH   LINE      CODE     ---       #86
      010012F1H   LINE      CODE     ---       #87
      010012F8H   LINE      CODE     ---       #88
      010012FAH   LINE      CODE     ---       #89
      ---         BLOCKEND  ---      ---       LVL=0

      010012B4H   BLOCK     CODE     ---       LVL=0
      010012B4H   LINE      CODE     ---       #93
      010012B4H   LINE      CODE     ---       #94
      010012B4H   LINE      CODE     ---       #95
      010012B6H   LINE      CODE     ---       #96
      010012B9H   LINE      CODE     ---       #97
      010012BBH   LINE      CODE     ---       #98
      010012C2H   LINE      CODE     ---       #99
      010012C4H   LINE      CODE     ---       #100
      010012CBH   LINE      CODE     ---       #101
      010012CDH   LINE      CODE     ---       #102
      ---         BLOCKEND  ---      ---       LVL=0

      010012CEH   BLOCK     CODE     ---       LVL=0
      010012CEH   LINE      CODE     ---       #105
      010012CEH   LINE      CODE     ---       #106
      010012CEH   LINE      CODE     ---       #107
      010012D0H   LINE      CODE     ---       #108
      010012D3H   LINE      CODE     ---       #109
      010012D5H   LINE      CODE     ---       #110
      010012DCH   LINE      CODE     ---       #111
LX51 LINKER/LOCATER V4.66.97.0                                                        06/16/2023  12:31:30  PAGE 47


      010012DEH   LINE      CODE     ---       #112
      010012E5H   LINE      CODE     ---       #113
      010012E7H   LINE      CODE     ---       #114
      ---         BLOCKEND  ---      ---       LVL=0

      0100119AH   BLOCK     CODE     ---       LVL=0
      0100119AH   BLOCK     CODE     NEAR LAB  LVL=1
      00000043H   SYMBOL    DATA     BYTE      tempTime
      ---         BLOCKEND  ---      ---       LVL=1
      0100119AH   LINE      CODE     ---       #118
      0100119AH   LINE      CODE     ---       #119
      0100119AH   LINE      CODE     ---       #120
      0100119DH   LINE      CODE     ---       #121
      010011A0H   LINE      CODE     ---       #122
      010011A2H   LINE      CODE     ---       #123
      010011A9H   LINE      CODE     ---       #124
      010011ABH   LINE      CODE     ---       #125
      010011B2H   LINE      CODE     ---       #127
      010011B5H   LINE      CODE     ---       #128
      010011B5H   LINE      CODE     ---       #129
      010011B7H   LINE      CODE     ---       #130
      010011BEH   LINE      CODE     ---       #131
      010011C9H   LINE      CODE     ---       #132
      010011C9H   LINE      CODE     ---       #133
      010011CCH   LINE      CODE     ---       #134
      010011CFH   LINE      CODE     ---       #135
      010011CFH   LINE      CODE     ---       #136
      010011CFH   LINE      CODE     ---       #137
      010011D1H   LINE      CODE     ---       #138
      010011D8H   LINE      CODE     ---       #139
      010011DAH   LINE      CODE     ---       #140
      ---         BLOCKEND  ---      ---       LVL=0

      01001101H   BLOCK     CODE     ---       LVL=0
      00000043H   SYMBOL    DATA     BYTE      txd
      01001103H   BLOCK     CODE     NEAR LAB  LVL=1
      00000044H   SYMBOL    DATA     BYTE      i
      ---         BLOCKEND  ---      ---       LVL=1
      01001101H   LINE      CODE     ---       #142
      01001103H   LINE      CODE     ---       #143
      01001103H   LINE      CODE     ---       #144
      01001106H   LINE      CODE     ---       #145
      01001109H   LINE      CODE     ---       #146
      0100110BH   LINE      CODE     ---       #148
      01001119H   LINE      CODE     ---       #149
      01001119H   LINE      CODE     ---       #150
      01001125H   LINE      CODE     ---       #151
      01001129H   LINE      CODE     ---       #153
      0100112BH   LINE      CODE     ---       #155
      01001131H   LINE      CODE     ---       #156
      01001138H   LINE      CODE     ---       #157
      0100113AH   LINE      CODE     ---       #158
      01001141H   LINE      CODE     ---       #159
      01001143H   LINE      CODE     ---       #160
      0100114AH   LINE      CODE     ---       #161
      0100114EH   LINE      CODE     ---       #162
      ---         BLOCKEND  ---      ---       LVL=0

      0100114FH   BLOCK     CODE     ---       LVL=0
      00000043H   SYMBOL    DATA     BYTE      ack
      01001151H   BLOCK     CODE     NEAR LAB  LVL=1
      00000044H   SYMBOL    DATA     BYTE      i
      00000045H   SYMBOL    DATA     BYTE      receive
      ---         BLOCKEND  ---      ---       LVL=1
      0100114FH   LINE      CODE     ---       #166
LX51 LINKER/LOCATER V4.66.97.0                                                        06/16/2023  12:31:30  PAGE 48


      01001151H   LINE      CODE     ---       #167
      01001151H   LINE      CODE     ---       #168
      01001156H   LINE      CODE     ---       #170
      01001159H   LINE      CODE     ---       #171
      01001167H   LINE      CODE     ---       #172
      01001167H   LINE      CODE     ---       #173
      01001169H   LINE      CODE     ---       #174
      01001170H   LINE      CODE     ---       #175
      01001172H   LINE      CODE     ---       #176
      01001175H   LINE      CODE     ---       #177
      0100117BH   LINE      CODE     ---       #178
      0100117EH   LINE      CODE     ---       #179
      01001180H   LINE      CODE     ---       #180
      01001187H   LINE      CODE     ---       #181
      0100118BH   LINE      CODE     ---       #183
      0100118FH   LINE      CODE     ---       #184
      01001194H   LINE      CODE     ---       #186
      01001197H   LINE      CODE     ---       #188
      01001199H   LINE      CODE     ---       #189
      ---         BLOCKEND  ---      ---       LVL=0

      01000CE9H   BLOCK     CODE     ---       LVL=0
      0000002AH   SYMBOL    DATA     BYTE      addr
      01000CEBH   BLOCK     CODE     NEAR LAB  LVL=1
      0000002BH   SYMBOL    DATA     WORD      tem
      0000002DH   SYMBOL    DATA     WORD      hum
      0000002FH   SYMBOL    DATA     ---       buff
      0000003BH   SYMBOL    DATA     FLOAT     Temperature
      0000003FH   SYMBOL    DATA     FLOAT     Humidity
      ---         BLOCKEND  ---      ---       LVL=1
      01000CE9H   LINE      CODE     ---       #192
      01000CEBH   LINE      CODE     ---       #193
      01000CEBH   LINE      CODE     ---       #197
      01000CF4H   LINE      CODE     ---       #198
      01000CFCH   LINE      CODE     ---       #200
      01000CFFH   LINE      CODE     ---       #201
      01000D07H   LINE      CODE     ---       #202
      01000D0AH   LINE      CODE     ---       #203
      01000D0FH   LINE      CODE     ---       #204
      01000D12H   LINE      CODE     ---       #205
      01000D17H   LINE      CODE     ---       #206
      01000D1AH   LINE      CODE     ---       #207
      01000D1DH   LINE      CODE     ---       #209
      01000D24H   LINE      CODE     ---       #211
      01000D27H   LINE      CODE     ---       #212
      01000D31H   LINE      CODE     ---       #214
      01000D3AH   LINE      CODE     ---       #215
      01000D3AH   LINE      CODE     ---       #216
      01000D3DH   LINE      CODE     ---       #218
      01000D47H   LINE      CODE     ---       #219
      01000D51H   LINE      CODE     ---       #220
      01000D5BH   LINE      CODE     ---       #221
      01000D65H   LINE      CODE     ---       #222
      01000D6FH   LINE      CODE     ---       #223
      01000D79H   LINE      CODE     ---       #224
      01000D7CH   LINE      CODE     ---       #226
      01000D86H   LINE      CODE     ---       #227
      01000D90H   LINE      CODE     ---       #229
      01000DBFH   LINE      CODE     ---       #230
      01000DE4H   LINE      CODE     ---       #231
      01000DE4H   LINE      CODE     ---       #233
      01000E36H   LINE      CODE     ---       #234
      01000E36H   LINE      CODE     ---       #235
      01000E42H   LINE      CODE     ---       #236
      01000E4EH   LINE      CODE     ---       #237
LX51 LINKER/LOCATER V4.66.97.0                                                        06/16/2023  12:31:30  PAGE 49


      01000E4EH   LINE      CODE     ---       #239
      01000E53H   LINE      CODE     ---       #240
      01000E57H   LINE      CODE     ---       #241
      ---         BLOCKEND  ---      ---       LVL=0

      01000F18H   BLOCK     CODE     ---       LVL=0
      0000002AH   SYMBOL    DATA     ---       buf
      0000002DH   SYMBOL    DATA     BYTE      length
      01000F20H   BLOCK     CODE     NEAR LAB  LVL=1
      0000002EH   SYMBOL    DATA     BYTE      i
      0000002FH   SYMBOL    DATA     BYTE      j
      00000030H   SYMBOL    DATA     FLOAT     tmp
      ---         BLOCKEND  ---      ---       LVL=1
      01000F18H   LINE      CODE     ---       #243
      01000F20H   LINE      CODE     ---       #244
      01000F20H   LINE      CODE     ---       #247
      01000F2DH   LINE      CODE     ---       #248
      01000F2DH   LINE      CODE     ---       #249
      01000F3CH   LINE      CODE     ---       #250
      01000F3CH   LINE      CODE     ---       #251
      01000F63H   LINE      CODE     ---       #252
      01000F63H   LINE      CODE     ---       #253
      01000F7FH   LINE      CODE     ---       #254
      01000F9BH   LINE      CODE     ---       #255
      01000FB7H   LINE      CODE     ---       #256
      01000FB7H   LINE      CODE     ---       #257
      01000FBCH   LINE      CODE     ---       #258
      01000FC1H   LINE      CODE     ---       #259
      ---         BLOCKEND  ---      ---       LVL=0

      01000E58H   BLOCK     CODE     ---       LVL=0
      01000E58H   BLOCK     CODE     NEAR LAB  LVL=1
      00000001H   SYMBOL    DATA     ---       buff_temp
      00000015H   SYMBOL    DATA     ---       buff_humi
      00000029H   SYMBOL    DATA     BYTE      i
      ---         BLOCKEND  ---      ---       LVL=1
      01000E58H   LINE      CODE     ---       #261
      01000E58H   LINE      CODE     ---       #262
      01000E58H   LINE      CODE     ---       #264
      01000E5BH   LINE      CODE     ---       #265
      01000E68H   LINE      CODE     ---       #266
      01000E68H   LINE      CODE     ---       #267
      01000E6DH   LINE      CODE     ---       #268
      01000E81H   LINE      CODE     ---       #269
      01000E95H   LINE      CODE     ---       #270
      01000E99H   LINE      CODE     ---       #272
      01000EA4H   LINE      CODE     ---       #273
      01000EAFH   LINE      CODE     ---       #275
      01000ED3H   LINE      CODE     ---       #276
      01000EF7H   LINE      CODE     ---       #278
      ---         BLOCKEND  ---      ---       LVL=0

      ---         MODULE    ---      ---       DISP
      00000022H   PUBLIC    DATA     ---       lcd_ram

      ---         MODULE    ---      ---       BUZZER
      000000E3H   SFRSYM    DATA     BYTE      LXDAT
      000000C4H   SFRSYM    DATA     BYTE      TKCHS
      00000080H   SFRSYM    DATA     BYTE      P0
      000000C1H   SFRSYM    DATA     BYTE      TKCON
      00000090H   SFRSYM    DATA     BYTE      P1
      000000A0H   SFRSYM    DATA     BYTE      P2
      000000B0H   SFRSYM    DATA     BYTE      P3
      000000D0H.6 SFRSYM    DATA     BIT       AC
      000000C0H   SFRSYM    DATA     BYTE      P4
LX51 LINKER/LOCATER V4.66.97.0                                                        06/16/2023  12:31:30  PAGE 50


      000000D8H   SFRSYM    DATA     BYTE      P5
      000000A5H   SFRSYM    DATA     BYTE      SPCON
      000000A8H.7 SFRSYM    DATA     BIT       EA
      000000E1H   SFRSYM    DATA     BYTE      LXCON
      000000A9H   SFRSYM    DATA     BYTE      P6
      000000C8H.0 SFRSYM    DATA     BIT       T2P0
      000000D9H   SFRSYM    DATA     BYTE      P7
      000000C8H.1 SFRSYM    DATA     BIT       T2P1
      000000F1H   SFRSYM    DATA     BYTE      RTCON
      000000C8H.4 SFRSYM    DATA     BIT       T2R0
      000000DAH   SFRSYM    DATA     BYTE      PWMEN
      000000CFH   SFRSYM    DATA     BYTE      TKMSH
      00000086H   SFRSYM    DATA     BYTE      PWCON
      000000C8H.5 SFRSYM    DATA     BIT       T2R1
      000000CEH   SFRSYM    DATA     BYTE      TKMSL
      000000A7H   SFRSYM    DATA     BYTE      SPSTA
      00000083H   SFRSYM    DATA     BYTE      DP0H
      000000A8H   SFRSYM    DATA     BYTE      IE
      00000085H   SFRSYM    DATA     BYTE      DP1H
      000000E9H   SFRSYM    DATA     BYTE      RTCSS
      00000082H   SFRSYM    DATA     BYTE      DP0L
      000000CBH   SFRSYM    DATA     BYTE      T2CH
      000000B3H   SFRSYM    DATA     BYTE      I2CADM
      00000084H   SFRSYM    DATA     BYTE      DP1L
      000000C8H.3 SFRSYM    DATA     BIT       T2IE
      000000C3H   SFRSYM    DATA     BYTE      TKMTS
      000000CAH   SFRSYM    DATA     BYTE      T2CL
      000000B2H   SFRSYM    DATA     BYTE      I2CADR
      000000B4H   SFRSYM    DATA     BYTE      I2CCCR
      000000B8H   SFRSYM    DATA     BYTE      IP
      000000B7H   SFRSYM    DATA     BYTE      I2CFLG
      000000B5H   SFRSYM    DATA     BYTE      I2CDAT
      000000EDH   SFRSYM    DATA     BYTE      RTMSS
      000000D0H.7 SFRSYM    DATA     BIT       CY
      000000BBH   SFRSYM    DATA     BYTE      ADCFGH
      000000DCH   SFRSYM    DATA     BYTE      PWMCMAX
      000000B1H   SFRSYM    DATA     BYTE      I2CCON
      000000D1H   SFRSYM    DATA     BYTE      PWMDIVH
      000000BAH   SFRSYM    DATA     BYTE      ADCFGL
      00000081H   SFRSYM    DATA     BYTE      SP
      000000F9H   SFRSYM    DATA     BYTE      EPIE
      000000D0H.2 SFRSYM    DATA     BIT       OV
      000000FAH   SFRSYM    DATA     BYTE      EPIF
      000000DFH   SFRSYM    DATA     BYTE      PWMDIVL
      000000B6H   SFRSYM    DATA     BYTE      I2CSTA
      000000E8H   SFRSYM    DATA     BYTE      EXIE
      000000D3H   SFRSYM    DATA     BYTE      PWMDUTH
      000000C7H   SFRSYM    DATA     BYTE      TKIF
      0000008FH   SFRSYM    DATA     BYTE      IT0CON
      00000080H.0 SFRSYM    DATA     BIT       P00
      000000ECH   SFRSYM    DATA     BYTE      RTAH
      000000D2H   SFRSYM    DATA     BYTE      PWMDUTL
      0000008EH   SFRSYM    DATA     BYTE      IT1CON
      00000090H.0 SFRSYM    DATA     BIT       P10
      00000080H.1 SFRSYM    DATA     BIT       P01
      0000009DH   SFRSYM    DATA     BYTE      S1RELH
      00000087H   SFRSYM    DATA     BYTE      PCON
      000000A0H.0 SFRSYM    DATA     BIT       P20
      00000090H.1 SFRSYM    DATA     BIT       P11
      00000080H.2 SFRSYM    DATA     BIT       P02
      000000E8H.0 SFRSYM    DATA     BIT       INT2EN
      000000F4H   SFRSYM    DATA     BYTE      RTCH
      000000A4H   SFRSYM    DATA     BYTE      S2RELH
      000000B0H.0 SFRSYM    DATA     BIT       P30
      000000A0H.1 SFRSYM    DATA     BIT       P21
LX51 LINKER/LOCATER V4.66.97.0                                                        06/16/2023  12:31:30  PAGE 51


      00000090H.2 SFRSYM    DATA     BIT       P12
      00000080H.3 SFRSYM    DATA     BIT       P03
      000000E8H.1 SFRSYM    DATA     BIT       INT3EN
      000000C0H.0 SFRSYM    DATA     BIT       P40
      000000B0H.1 SFRSYM    DATA     BIT       P31
      000000A0H.2 SFRSYM    DATA     BIT       P22
      00000090H.3 SFRSYM    DATA     BIT       P13
      00000080H.4 SFRSYM    DATA     BIT       P04
      000000E8H.2 SFRSYM    DATA     BIT       INT4EN
      000000D8H.0 SFRSYM    DATA     BIT       P50
      000000C0H.1 SFRSYM    DATA     BIT       P41
      000000B0H.2 SFRSYM    DATA     BIT       P32
      000000A0H.3 SFRSYM    DATA     BIT       P23
      00000090H.4 SFRSYM    DATA     BIT       P14
      00000080H.5 SFRSYM    DATA     BIT       P05
      000000E8H.3 SFRSYM    DATA     BIT       INT5EN
      000000EBH   SFRSYM    DATA     BYTE      RTAM
      0000009CH   SFRSYM    DATA     BYTE      S1RELL
      00000089H   SFRSYM    DATA     BYTE      TMOD
      00000088H   SFRSYM    DATA     BYTE      TCON
      000000D8H.1 SFRSYM    DATA     BIT       P51
      000000C0H.2 SFRSYM    DATA     BIT       P42
      000000B0H.3 SFRSYM    DATA     BIT       P33
      000000A0H.4 SFRSYM    DATA     BIT       P24
      00000090H.5 SFRSYM    DATA     BIT       P15
      00000080H.6 SFRSYM    DATA     BIT       P06
      000000E8H.4 SFRSYM    DATA     BIT       INT6EN
      000000A3H   SFRSYM    DATA     BYTE      S2RELL
      000000D8H.2 SFRSYM    DATA     BIT       P52
      000000C0H.3 SFRSYM    DATA     BIT       P43
      000000B0H.4 SFRSYM    DATA     BIT       P34
      000000A0H.5 SFRSYM    DATA     BIT       P25
      00000090H.6 SFRSYM    DATA     BIT       P16
      00000080H.7 SFRSYM    DATA     BIT       P07
      000000E8H.5 SFRSYM    DATA     BIT       INT7EN
      000000C8H.2 SFRSYM    DATA     BIT       UCKS
      000000F8H   SFRSYM    DATA     BYTE      EXIP
      000000F3H   SFRSYM    DATA     BYTE      RTCM
      000000D8H.3 SFRSYM    DATA     BIT       P53
      000000C0H.4 SFRSYM    DATA     BIT       P44
      000000B0H.5 SFRSYM    DATA     BIT       P35
      000000A0H.6 SFRSYM    DATA     BIT       P26
      00000090H.7 SFRSYM    DATA     BIT       P17
      000000E8H.6 SFRSYM    DATA     BIT       INT8EN
      000000D8H.4 SFRSYM    DATA     BIT       P54
      000000C0H.5 SFRSYM    DATA     BIT       P45
      000000B0H.6 SFRSYM    DATA     BIT       P36
      000000A0H.7 SFRSYM    DATA     BIT       P27
      000000E8H.7 SFRSYM    DATA     BIT       INT9EN
      000000D8H.5 SFRSYM    DATA     BIT       P55
      000000C0H.6 SFRSYM    DATA     BIT       P46
      000000B0H.7 SFRSYM    DATA     BIT       P37
      000000D8H.6 SFRSYM    DATA     BIT       P56
      000000C0H.7 SFRSYM    DATA     BIT       P47
      000000EAH   SFRSYM    DATA     BYTE      RTAS
      000000AFH   SFRSYM    DATA     BYTE      HVTH
      00000095H   SFRSYM    DATA     BYTE      RCTAGH
      000000D8H.7 SFRSYM    DATA     BIT       P57
      000000F2H   SFRSYM    DATA     BYTE      RTCS
      00000088H.1 SFRSYM    DATA     BIT       IE0
      00000088H.3 SFRSYM    DATA     BIT       IE1
      00000094H   SFRSYM    DATA     BYTE      RCTAGL
      000000F0H   SFRSYM    DATA     BYTE      B
      000000E7H   SFRSYM    DATA     BYTE      MDUDAT
      000000DEH   SFRSYM    DATA     BYTE      PWMCFG
LX51 LINKER/LOCATER V4.66.97.0                                                        06/16/2023  12:31:30  PAGE 52


      000000D4H   SFRSYM    DATA     BYTE      PWMAIF
      000000E0H   SFRSYM    DATA     BYTE      ACC
      000000D5H   SFRSYM    DATA     BYTE      PWMBIF
      0000009FH   SFRSYM    DATA     BYTE      RCMSHH
      000000A8H.4 SFRSYM    DATA     BIT       ES0
      000000EFH   SFRSYM    DATA     BYTE      LVDCON
      000000E6H   SFRSYM    DATA     BYTE      MDUCON
      000000D6H   SFRSYM    DATA     BYTE      PWMCIF
      000000A8H.1 SFRSYM    DATA     BIT       ET0
      000000A8H.6 SFRSYM    DATA     BIT       ES1
      000000D7H   SFRSYM    DATA     BYTE      PWMDIF
      000000A8H.3 SFRSYM    DATA     BIT       ET1
      00000088H.5 SFRSYM    DATA     BIT       TF0
      000000FDH   SFRSYM    DATA     BYTE      IDLSTH
      000000AEH   SFRSYM    DATA     BYTE      PLLCON
      000000A8H.5 SFRSYM    DATA     BIT       ET2
      00000098H.0 SFRSYM    DATA     BIT       RI0
      00000088H.7 SFRSYM    DATA     BIT       TF1
      0000009EH   SFRSYM    DATA     BYTE      RCMSHL
      00000097H   SFRSYM    DATA     BYTE      RCMSLH
      000000C8H.7 SFRSYM    DATA     BIT       TF2
      00000098H.2 SFRSYM    DATA     BIT       RB8
      0000008CH   SFRSYM    DATA     BYTE      TH0
      000000A8H.0 SFRSYM    DATA     BIT       EX0
      00000098H.1 SFRSYM    DATA     BIT       TI0
      00000088H.0 SFRSYM    DATA     BIT       IT0
      0000008DH   SFRSYM    DATA     BYTE      TH1
      000000A8H.2 SFRSYM    DATA     BIT       EX1
      00000098H.3 SFRSYM    DATA     BIT       TB8
      00000088H.2 SFRSYM    DATA     BIT       IT1
      000000FCH   SFRSYM    DATA     BYTE      IDLSTL
      000000CDH   SFRSYM    DATA     BYTE      TH2
      000000D0H.0 SFRSYM    DATA     BIT       P
      00000096H   SFRSYM    DATA     BYTE      RCMSLL
      00000098H.7 SFRSYM    DATA     BIT       SM0
      0000008AH   SFRSYM    DATA     BYTE      TL0
      00000098H.6 SFRSYM    DATA     BIT       SM1
      000000E5H   SFRSYM    DATA     BYTE      LXDIVH
      0000008BH   SFRSYM    DATA     BYTE      TL1
      00000098H.5 SFRSYM    DATA     BIT       SM2
      000000CCH   SFRSYM    DATA     BYTE      TL2
      000000B8H.4 SFRSYM    DATA     BIT       PS0
      000000B8H.1 SFRSYM    DATA     BIT       PT0
      000000B8H.6 SFRSYM    DATA     BIT       PS1
      000000B8H.3 SFRSYM    DATA     BIT       PT1
      000000D0H.3 SFRSYM    DATA     BIT       RS0
      000000E4H   SFRSYM    DATA     BYTE      LXDIVL
      000000BDH   SFRSYM    DATA     BYTE      ADCDH
      000000B8H.5 SFRSYM    DATA     BIT       PT2
      00000088H.4 SFRSYM    DATA     BIT       TR0
      000000D0H.4 SFRSYM    DATA     BIT       RS1
      000000DDH   SFRSYM    DATA     BYTE      PWMCON
      00000088H.6 SFRSYM    DATA     BIT       TR1
      000000ADH   SFRSYM    DATA     BYTE      WDVTHH
      000000C8H.6 SFRSYM    DATA     BIT       TR2
      000000B8H.0 SFRSYM    DATA     BIT       PX0
      000000B8H.2 SFRSYM    DATA     BIT       PX1
      000000BCH   SFRSYM    DATA     BYTE      ADCDL
      000000ACH   SFRSYM    DATA     BYTE      WDVTHL
      000000DBH   SFRSYM    DATA     BYTE      PWMUPD
      00000099H   SFRSYM    DATA     BYTE      S0BUF
      0000009BH   SFRSYM    DATA     BYTE      S1BUF
      000000A2H   SFRSYM    DATA     BYTE      S2BUF
      00000098H   SFRSYM    DATA     BYTE      S0CON
      00000098H.4 SFRSYM    DATA     BIT       REN
LX51 LINKER/LOCATER V4.66.97.0                                                        06/16/2023  12:31:30  PAGE 53


      0000009AH   SFRSYM    DATA     BYTE      S1CON
      000000B9H   SFRSYM    DATA     BYTE      ADCON
      000000A1H   SFRSYM    DATA     BYTE      S2CON
      000000D0H.1 SFRSYM    DATA     BIT       DPS
      000000C9H   SFRSYM    DATA     BYTE      T2MOD
      000000C8H   SFRSYM    DATA     BYTE      T2CON
      000000FFH   SFRSYM    DATA     BYTE      STPSTH
      000000BFH   SFRSYM    DATA     BYTE      CKMIF
      000000FEH   SFRSYM    DATA     BYTE      STPSTL
      000000C2H   SFRSYM    DATA     BYTE      TKCFG
      00000093H   SFRSYM    DATA     BYTE      VCKDH
      000000D0H.5 SFRSYM    DATA     BIT       F0
      000000E2H   SFRSYM    DATA     BYTE      LXCFG
      000000ABH   SFRSYM    DATA     BYTE      WDFLG
      00000092H   SFRSYM    DATA     BYTE      VCKDL
      000000FBH   SFRSYM    DATA     BYTE      EPCON
      000000F6H   SFRSYM    DATA     BYTE      RTCDH
      000000C6H   SFRSYM    DATA     BYTE      ATKMH
      00000091H   SFRSYM    DATA     BYTE      RCCON
      000000F7H   SFRSYM    DATA     BYTE      INDEX
      000000EEH   SFRSYM    DATA     BYTE      RTCIF
      000000BEH   SFRSYM    DATA     BYTE      CKMON
      000000F5H   SFRSYM    DATA     BYTE      RTCDL
      000000D0H   SFRSYM    DATA     BYTE      PSW
      000000C5H   SFRSYM    DATA     BYTE      ATKML
      000000AAH   SFRSYM    DATA     BYTE      WDCON
      000000A6H   SFRSYM    DATA     BYTE      SPDAT

      ---         MODULE    ---      ---       ADC
      00000018H   PUBLIC    DATA     FLOAT     VDD_Voltage
      000000E3H   SFRSYM    DATA     BYTE      LXDAT
      000000C4H   SFRSYM    DATA     BYTE      TKCHS
      00000080H   SFRSYM    DATA     BYTE      P0
      000000C1H   SFRSYM    DATA     BYTE      TKCON
      00000090H   SFRSYM    DATA     BYTE      P1
      000000A0H   SFRSYM    DATA     BYTE      P2
      000000B0H   SFRSYM    DATA     BYTE      P3
      000000D0H.6 SFRSYM    DATA     BIT       AC
      000000C0H   SFRSYM    DATA     BYTE      P4
      000000D8H   SFRSYM    DATA     BYTE      P5
      000000A5H   SFRSYM    DATA     BYTE      SPCON
      000000A8H.7 SFRSYM    DATA     BIT       EA
      000000E1H   SFRSYM    DATA     BYTE      LXCON
      000000A9H   SFRSYM    DATA     BYTE      P6
      000000C8H.0 SFRSYM    DATA     BIT       T2P0
      000000D9H   SFRSYM    DATA     BYTE      P7
      000000C8H.1 SFRSYM    DATA     BIT       T2P1
      000000F1H   SFRSYM    DATA     BYTE      RTCON
      000000C8H.4 SFRSYM    DATA     BIT       T2R0
      000000DAH   SFRSYM    DATA     BYTE      PWMEN
      000000CFH   SFRSYM    DATA     BYTE      TKMSH
      00000086H   SFRSYM    DATA     BYTE      PWCON
      000000C8H.5 SFRSYM    DATA     BIT       T2R1
      000000CEH   SFRSYM    DATA     BYTE      TKMSL
      000000A7H   SFRSYM    DATA     BYTE      SPSTA
      00000083H   SFRSYM    DATA     BYTE      DP0H
      000000A8H   SFRSYM    DATA     BYTE      IE
      00000085H   SFRSYM    DATA     BYTE      DP1H
      000000E9H   SFRSYM    DATA     BYTE      RTCSS
      00000082H   SFRSYM    DATA     BYTE      DP0L
      000000CBH   SFRSYM    DATA     BYTE      T2CH
      000000B3H   SFRSYM    DATA     BYTE      I2CADM
      00000084H   SFRSYM    DATA     BYTE      DP1L
      000000C8H.3 SFRSYM    DATA     BIT       T2IE
      000000C3H   SFRSYM    DATA     BYTE      TKMTS
LX51 LINKER/LOCATER V4.66.97.0                                                        06/16/2023  12:31:30  PAGE 54


      000000CAH   SFRSYM    DATA     BYTE      T2CL
      000000B2H   SFRSYM    DATA     BYTE      I2CADR
      000000B4H   SFRSYM    DATA     BYTE      I2CCCR
      000000B8H   SFRSYM    DATA     BYTE      IP
      000000B7H   SFRSYM    DATA     BYTE      I2CFLG
      000000B5H   SFRSYM    DATA     BYTE      I2CDAT
      000000EDH   SFRSYM    DATA     BYTE      RTMSS
      000000D0H.7 SFRSYM    DATA     BIT       CY
      000000BBH   SFRSYM    DATA     BYTE      ADCFGH
      000000DCH   SFRSYM    DATA     BYTE      PWMCMAX
      000000B1H   SFRSYM    DATA     BYTE      I2CCON
      000000D1H   SFRSYM    DATA     BYTE      PWMDIVH
      000000BAH   SFRSYM    DATA     BYTE      ADCFGL
      00000081H   SFRSYM    DATA     BYTE      SP
      000000F9H   SFRSYM    DATA     BYTE      EPIE
      000000D0H.2 SFRSYM    DATA     BIT       OV
      000000FAH   SFRSYM    DATA     BYTE      EPIF
      000000DFH   SFRSYM    DATA     BYTE      PWMDIVL
      000000B6H   SFRSYM    DATA     BYTE      I2CSTA
      000000E8H   SFRSYM    DATA     BYTE      EXIE
      000000D3H   SFRSYM    DATA     BYTE      PWMDUTH
      000000C7H   SFRSYM    DATA     BYTE      TKIF
      0000008FH   SFRSYM    DATA     BYTE      IT0CON
      00000080H.0 SFRSYM    DATA     BIT       P00
      000000ECH   SFRSYM    DATA     BYTE      RTAH
      000000D2H   SFRSYM    DATA     BYTE      PWMDUTL
      0000008EH   SFRSYM    DATA     BYTE      IT1CON
      00000090H.0 SFRSYM    DATA     BIT       P10
      00000080H.1 SFRSYM    DATA     BIT       P01
      0000009DH   SFRSYM    DATA     BYTE      S1RELH
      00000087H   SFRSYM    DATA     BYTE      PCON
      000000A0H.0 SFRSYM    DATA     BIT       P20
      00000090H.1 SFRSYM    DATA     BIT       P11
      00000080H.2 SFRSYM    DATA     BIT       P02
      000000E8H.0 SFRSYM    DATA     BIT       INT2EN
      000000F4H   SFRSYM    DATA     BYTE      RTCH
      000000A4H   SFRSYM    DATA     BYTE      S2RELH
      000000B0H.0 SFRSYM    DATA     BIT       P30
      000000A0H.1 SFRSYM    DATA     BIT       P21
      00000090H.2 SFRSYM    DATA     BIT       P12
      00000080H.3 SFRSYM    DATA     BIT       P03
      000000E8H.1 SFRSYM    DATA     BIT       INT3EN
      000000C0H.0 SFRSYM    DATA     BIT       P40
      000000B0H.1 SFRSYM    DATA     BIT       P31
      000000A0H.2 SFRSYM    DATA     BIT       P22
      00000090H.3 SFRSYM    DATA     BIT       P13
      00000080H.4 SFRSYM    DATA     BIT       P04
      000000E8H.2 SFRSYM    DATA     BIT       INT4EN
      000000D8H.0 SFRSYM    DATA     BIT       P50
      000000C0H.1 SFRSYM    DATA     BIT       P41
      000000B0H.2 SFRSYM    DATA     BIT       P32
      000000A0H.3 SFRSYM    DATA     BIT       P23
      00000090H.4 SFRSYM    DATA     BIT       P14
      00000080H.5 SFRSYM    DATA     BIT       P05
      000000E8H.3 SFRSYM    DATA     BIT       INT5EN
      000000EBH   SFRSYM    DATA     BYTE      RTAM
      0000009CH   SFRSYM    DATA     BYTE      S1RELL
      00000089H   SFRSYM    DATA     BYTE      TMOD
      00000088H   SFRSYM    DATA     BYTE      TCON
      000000D8H.1 SFRSYM    DATA     BIT       P51
      000000C0H.2 SFRSYM    DATA     BIT       P42
      000000B0H.3 SFRSYM    DATA     BIT       P33
      000000A0H.4 SFRSYM    DATA     BIT       P24
      00000090H.5 SFRSYM    DATA     BIT       P15
      00000080H.6 SFRSYM    DATA     BIT       P06
LX51 LINKER/LOCATER V4.66.97.0                                                        06/16/2023  12:31:30  PAGE 55


      000000E8H.4 SFRSYM    DATA     BIT       INT6EN
      000000A3H   SFRSYM    DATA     BYTE      S2RELL
      000000D8H.2 SFRSYM    DATA     BIT       P52
      000000C0H.3 SFRSYM    DATA     BIT       P43
      000000B0H.4 SFRSYM    DATA     BIT       P34
      000000A0H.5 SFRSYM    DATA     BIT       P25
      00000090H.6 SFRSYM    DATA     BIT       P16
      00000080H.7 SFRSYM    DATA     BIT       P07
      000000E8H.5 SFRSYM    DATA     BIT       INT7EN
      000000C8H.2 SFRSYM    DATA     BIT       UCKS
      000000F8H   SFRSYM    DATA     BYTE      EXIP
      000000F3H   SFRSYM    DATA     BYTE      RTCM
      000000D8H.3 SFRSYM    DATA     BIT       P53
      000000C0H.4 SFRSYM    DATA     BIT       P44
      000000B0H.5 SFRSYM    DATA     BIT       P35
      000000A0H.6 SFRSYM    DATA     BIT       P26
      00000090H.7 SFRSYM    DATA     BIT       P17
      000000E8H.6 SFRSYM    DATA     BIT       INT8EN
      000000D8H.4 SFRSYM    DATA     BIT       P54
      000000C0H.5 SFRSYM    DATA     BIT       P45
      000000B0H.6 SFRSYM    DATA     BIT       P36
      000000A0H.7 SFRSYM    DATA     BIT       P27
      000000E8H.7 SFRSYM    DATA     BIT       INT9EN
      000000D8H.5 SFRSYM    DATA     BIT       P55
      000000C0H.6 SFRSYM    DATA     BIT       P46
      000000B0H.7 SFRSYM    DATA     BIT       P37
      000000D8H.6 SFRSYM    DATA     BIT       P56
      000000C0H.7 SFRSYM    DATA     BIT       P47
      000000EAH   SFRSYM    DATA     BYTE      RTAS
      000000AFH   SFRSYM    DATA     BYTE      HVTH
      00000095H   SFRSYM    DATA     BYTE      RCTAGH
      000000D8H.7 SFRSYM    DATA     BIT       P57
      000000F2H   SFRSYM    DATA     BYTE      RTCS
      00000088H.1 SFRSYM    DATA     BIT       IE0
      00000088H.3 SFRSYM    DATA     BIT       IE1
      00000094H   SFRSYM    DATA     BYTE      RCTAGL
      000000F0H   SFRSYM    DATA     BYTE      B
      000000E7H   SFRSYM    DATA     BYTE      MDUDAT
      000000DEH   SFRSYM    DATA     BYTE      PWMCFG
      000000D4H   SFRSYM    DATA     BYTE      PWMAIF
      000000E0H   SFRSYM    DATA     BYTE      ACC
      000000D5H   SFRSYM    DATA     BYTE      PWMBIF
      0000009FH   SFRSYM    DATA     BYTE      RCMSHH
      000000A8H.4 SFRSYM    DATA     BIT       ES0
      000000EFH   SFRSYM    DATA     BYTE      LVDCON
      000000E6H   SFRSYM    DATA     BYTE      MDUCON
      000000D6H   SFRSYM    DATA     BYTE      PWMCIF
      000000A8H.1 SFRSYM    DATA     BIT       ET0
      000000A8H.6 SFRSYM    DATA     BIT       ES1
      000000D7H   SFRSYM    DATA     BYTE      PWMDIF
      000000A8H.3 SFRSYM    DATA     BIT       ET1
      00000088H.5 SFRSYM    DATA     BIT       TF0
      000000FDH   SFRSYM    DATA     BYTE      IDLSTH
      000000AEH   SFRSYM    DATA     BYTE      PLLCON
      000000A8H.5 SFRSYM    DATA     BIT       ET2
      00000098H.0 SFRSYM    DATA     BIT       RI0
      00000088H.7 SFRSYM    DATA     BIT       TF1
      0000009EH   SFRSYM    DATA     BYTE      RCMSHL
      00000097H   SFRSYM    DATA     BYTE      RCMSLH
      000000C8H.7 SFRSYM    DATA     BIT       TF2
      00000098H.2 SFRSYM    DATA     BIT       RB8
      0000008CH   SFRSYM    DATA     BYTE      TH0
      000000A8H.0 SFRSYM    DATA     BIT       EX0
      00000098H.1 SFRSYM    DATA     BIT       TI0
      00000088H.0 SFRSYM    DATA     BIT       IT0
LX51 LINKER/LOCATER V4.66.97.0                                                        06/16/2023  12:31:30  PAGE 56


      0000008DH   SFRSYM    DATA     BYTE      TH1
      000000A8H.2 SFRSYM    DATA     BIT       EX1
      00000098H.3 SFRSYM    DATA     BIT       TB8
      00000088H.2 SFRSYM    DATA     BIT       IT1
      000000FCH   SFRSYM    DATA     BYTE      IDLSTL
      000000CDH   SFRSYM    DATA     BYTE      TH2
      000000D0H.0 SFRSYM    DATA     BIT       P
      00000096H   SFRSYM    DATA     BYTE      RCMSLL
      00000098H.7 SFRSYM    DATA     BIT       SM0
      0000008AH   SFRSYM    DATA     BYTE      TL0
      00000098H.6 SFRSYM    DATA     BIT       SM1
      000000E5H   SFRSYM    DATA     BYTE      LXDIVH
      0000008BH   SFRSYM    DATA     BYTE      TL1
      00000098H.5 SFRSYM    DATA     BIT       SM2
      000000CCH   SFRSYM    DATA     BYTE      TL2
      000000B8H.4 SFRSYM    DATA     BIT       PS0
      000000B8H.1 SFRSYM    DATA     BIT       PT0
      000000B8H.6 SFRSYM    DATA     BIT       PS1
      000000B8H.3 SFRSYM    DATA     BIT       PT1
      000000D0H.3 SFRSYM    DATA     BIT       RS0
      000000E4H   SFRSYM    DATA     BYTE      LXDIVL
      000000BDH   SFRSYM    DATA     BYTE      ADCDH
      000000B8H.5 SFRSYM    DATA     BIT       PT2
      00000088H.4 SFRSYM    DATA     BIT       TR0
      000000D0H.4 SFRSYM    DATA     BIT       RS1
      000000DDH   SFRSYM    DATA     BYTE      PWMCON
      00000088H.6 SFRSYM    DATA     BIT       TR1
      000000ADH   SFRSYM    DATA     BYTE      WDVTHH
      000000C8H.6 SFRSYM    DATA     BIT       TR2
      000000B8H.0 SFRSYM    DATA     BIT       PX0
      000000B8H.2 SFRSYM    DATA     BIT       PX1
      000000BCH   SFRSYM    DATA     BYTE      ADCDL
      000000ACH   SFRSYM    DATA     BYTE      WDVTHL
      000000DBH   SFRSYM    DATA     BYTE      PWMUPD
      00000099H   SFRSYM    DATA     BYTE      S0BUF
      0000009BH   SFRSYM    DATA     BYTE      S1BUF
      000000A2H   SFRSYM    DATA     BYTE      S2BUF
      00000098H   SFRSYM    DATA     BYTE      S0CON
      00000098H.4 SFRSYM    DATA     BIT       REN
      0000009AH   SFRSYM    DATA     BYTE      S1CON
      000000B9H   SFRSYM    DATA     BYTE      ADCON
      000000A1H   SFRSYM    DATA     BYTE      S2CON
      000000D0H.1 SFRSYM    DATA     BIT       DPS
      000000C9H   SFRSYM    DATA     BYTE      T2MOD
      000000C8H   SFRSYM    DATA     BYTE      T2CON
      000000FFH   SFRSYM    DATA     BYTE      STPSTH
      000000BFH   SFRSYM    DATA     BYTE      CKMIF
      000000FEH   SFRSYM    DATA     BYTE      STPSTL
      000000C2H   SFRSYM    DATA     BYTE      TKCFG
      00000093H   SFRSYM    DATA     BYTE      VCKDH
      000000D0H.5 SFRSYM    DATA     BIT       F0
      000000E2H   SFRSYM    DATA     BYTE      LXCFG
      000000ABH   SFRSYM    DATA     BYTE      WDFLG
      00000092H   SFRSYM    DATA     BYTE      VCKDL
      000000FBH   SFRSYM    DATA     BYTE      EPCON
      000000F6H   SFRSYM    DATA     BYTE      RTCDH
      000000C6H   SFRSYM    DATA     BYTE      ATKMH
      00000091H   SFRSYM    DATA     BYTE      RCCON
      000000F7H   SFRSYM    DATA     BYTE      INDEX
      000000EEH   SFRSYM    DATA     BYTE      RTCIF
      000000BEH   SFRSYM    DATA     BYTE      CKMON
      000000F5H   SFRSYM    DATA     BYTE      RTCDL
      000000D0H   SFRSYM    DATA     BYTE      PSW
      000000C5H   SFRSYM    DATA     BYTE      ATKML
      000000AAH   SFRSYM    DATA     BYTE      WDCON
LX51 LINKER/LOCATER V4.66.97.0                                                        06/16/2023  12:31:30  PAGE 57


      000000A6H   SFRSYM    DATA     BYTE      SPDAT
      00000006H   SYMBOL    DATA     WORD      AD_Value

      ---         MODULE    ---      ---       RTC
      00000021H.2 PUBLIC    BIT      BIT       AlarmEvFlag
      00000021H.1 PUBLIC    BIT      BIT       HalfSecFlag
      0100125BH   PUBLIC    CODE     ---       RTC_ISR
      000000E3H   SFRSYM    DATA     BYTE      LXDAT
      000000C4H   SFRSYM    DATA     BYTE      TKCHS
      00000080H   SFRSYM    DATA     BYTE      P0
      000000C1H   SFRSYM    DATA     BYTE      TKCON
      00000090H   SFRSYM    DATA     BYTE      P1
      000000A0H   SFRSYM    DATA     BYTE      P2
      000000B0H   SFRSYM    DATA     BYTE      P3
      000000D0H.6 SFRSYM    DATA     BIT       AC
      000000C0H   SFRSYM    DATA     BYTE      P4
      000000D8H   SFRSYM    DATA     BYTE      P5
      000000A5H   SFRSYM    DATA     BYTE      SPCON
      000000A8H.7 SFRSYM    DATA     BIT       EA
      000000E1H   SFRSYM    DATA     BYTE      LXCON
      000000A9H   SFRSYM    DATA     BYTE      P6
      000000C8H.0 SFRSYM    DATA     BIT       T2P0
      000000D9H   SFRSYM    DATA     BYTE      P7
      000000C8H.1 SFRSYM    DATA     BIT       T2P1
      000000F1H   SFRSYM    DATA     BYTE      RTCON
      000000C8H.4 SFRSYM    DATA     BIT       T2R0
      000000DAH   SFRSYM    DATA     BYTE      PWMEN
      000000CFH   SFRSYM    DATA     BYTE      TKMSH
      00000086H   SFRSYM    DATA     BYTE      PWCON
      000000C8H.5 SFRSYM    DATA     BIT       T2R1
      000000CEH   SFRSYM    DATA     BYTE      TKMSL
      000000A7H   SFRSYM    DATA     BYTE      SPSTA
      00000083H   SFRSYM    DATA     BYTE      DP0H
      000000A8H   SFRSYM    DATA     BYTE      IE
      00000085H   SFRSYM    DATA     BYTE      DP1H
      000000E9H   SFRSYM    DATA     BYTE      RTCSS
      00000082H   SFRSYM    DATA     BYTE      DP0L
      000000CBH   SFRSYM    DATA     BYTE      T2CH
      000000B3H   SFRSYM    DATA     BYTE      I2CADM
      00000084H   SFRSYM    DATA     BYTE      DP1L
      000000C8H.3 SFRSYM    DATA     BIT       T2IE
      000000C3H   SFRSYM    DATA     BYTE      TKMTS
      000000CAH   SFRSYM    DATA     BYTE      T2CL
      000000B2H   SFRSYM    DATA     BYTE      I2CADR
      000000B4H   SFRSYM    DATA     BYTE      I2CCCR
      000000B8H   SFRSYM    DATA     BYTE      IP
      000000B7H   SFRSYM    DATA     BYTE      I2CFLG
      000000B5H   SFRSYM    DATA     BYTE      I2CDAT
      000000EDH   SFRSYM    DATA     BYTE      RTMSS
      000000D0H.7 SFRSYM    DATA     BIT       CY
      000000BBH   SFRSYM    DATA     BYTE      ADCFGH
      000000DCH   SFRSYM    DATA     BYTE      PWMCMAX
      000000B1H   SFRSYM    DATA     BYTE      I2CCON
      000000D1H   SFRSYM    DATA     BYTE      PWMDIVH
      000000BAH   SFRSYM    DATA     BYTE      ADCFGL
      00000081H   SFRSYM    DATA     BYTE      SP
      000000F9H   SFRSYM    DATA     BYTE      EPIE
      000000D0H.2 SFRSYM    DATA     BIT       OV
      000000FAH   SFRSYM    DATA     BYTE      EPIF
      000000DFH   SFRSYM    DATA     BYTE      PWMDIVL
      000000B6H   SFRSYM    DATA     BYTE      I2CSTA
      000000E8H   SFRSYM    DATA     BYTE      EXIE
      000000D3H   SFRSYM    DATA     BYTE      PWMDUTH
      000000C7H   SFRSYM    DATA     BYTE      TKIF
      0000008FH   SFRSYM    DATA     BYTE      IT0CON
LX51 LINKER/LOCATER V4.66.97.0                                                        06/16/2023  12:31:30  PAGE 58


      00000080H.0 SFRSYM    DATA     BIT       P00
      000000ECH   SFRSYM    DATA     BYTE      RTAH
      000000D2H   SFRSYM    DATA     BYTE      PWMDUTL
      0000008EH   SFRSYM    DATA     BYTE      IT1CON
      00000090H.0 SFRSYM    DATA     BIT       P10
      00000080H.1 SFRSYM    DATA     BIT       P01
      0000009DH   SFRSYM    DATA     BYTE      S1RELH
      00000087H   SFRSYM    DATA     BYTE      PCON
      000000A0H.0 SFRSYM    DATA     BIT       P20
      00000090H.1 SFRSYM    DATA     BIT       P11
      00000080H.2 SFRSYM    DATA     BIT       P02
      000000E8H.0 SFRSYM    DATA     BIT       INT2EN
      000000F4H   SFRSYM    DATA     BYTE      RTCH
      000000A4H   SFRSYM    DATA     BYTE      S2RELH
      000000B0H.0 SFRSYM    DATA     BIT       P30
      000000A0H.1 SFRSYM    DATA     BIT       P21
      00000090H.2 SFRSYM    DATA     BIT       P12
      00000080H.3 SFRSYM    DATA     BIT       P03
      000000E8H.1 SFRSYM    DATA     BIT       INT3EN
      000000C0H.0 SFRSYM    DATA     BIT       P40
      000000B0H.1 SFRSYM    DATA     BIT       P31
      000000A0H.2 SFRSYM    DATA     BIT       P22
      00000090H.3 SFRSYM    DATA     BIT       P13
      00000080H.4 SFRSYM    DATA     BIT       P04
      000000E8H.2 SFRSYM    DATA     BIT       INT4EN
      000000D8H.0 SFRSYM    DATA     BIT       P50
      000000C0H.1 SFRSYM    DATA     BIT       P41
      000000B0H.2 SFRSYM    DATA     BIT       P32
      000000A0H.3 SFRSYM    DATA     BIT       P23
      00000090H.4 SFRSYM    DATA     BIT       P14
      00000080H.5 SFRSYM    DATA     BIT       P05
      000000E8H.3 SFRSYM    DATA     BIT       INT5EN
      000000EBH   SFRSYM    DATA     BYTE      RTAM
      0000009CH   SFRSYM    DATA     BYTE      S1RELL
      00000089H   SFRSYM    DATA     BYTE      TMOD
      00000088H   SFRSYM    DATA     BYTE      TCON
      000000D8H.1 SFRSYM    DATA     BIT       P51
      000000C0H.2 SFRSYM    DATA     BIT       P42
      000000B0H.3 SFRSYM    DATA     BIT       P33
      000000A0H.4 SFRSYM    DATA     BIT       P24
      00000090H.5 SFRSYM    DATA     BIT       P15
      00000080H.6 SFRSYM    DATA     BIT       P06
      000000E8H.4 SFRSYM    DATA     BIT       INT6EN
      000000A3H   SFRSYM    DATA     BYTE      S2RELL
      000000D8H.2 SFRSYM    DATA     BIT       P52
      000000C0H.3 SFRSYM    DATA     BIT       P43
      000000B0H.4 SFRSYM    DATA     BIT       P34
      000000A0H.5 SFRSYM    DATA     BIT       P25
      00000090H.6 SFRSYM    DATA     BIT       P16
      00000080H.7 SFRSYM    DATA     BIT       P07
      000000E8H.5 SFRSYM    DATA     BIT       INT7EN
      000000C8H.2 SFRSYM    DATA     BIT       UCKS
      000000F8H   SFRSYM    DATA     BYTE      EXIP
      000000F3H   SFRSYM    DATA     BYTE      RTCM
      000000D8H.3 SFRSYM    DATA     BIT       P53
      000000C0H.4 SFRSYM    DATA     BIT       P44
      000000B0H.5 SFRSYM    DATA     BIT       P35
      000000A0H.6 SFRSYM    DATA     BIT       P26
      00000090H.7 SFRSYM    DATA     BIT       P17
      000000E8H.6 SFRSYM    DATA     BIT       INT8EN
      000000D8H.4 SFRSYM    DATA     BIT       P54
      000000C0H.5 SFRSYM    DATA     BIT       P45
      000000B0H.6 SFRSYM    DATA     BIT       P36
      000000A0H.7 SFRSYM    DATA     BIT       P27
      000000E8H.7 SFRSYM    DATA     BIT       INT9EN
LX51 LINKER/LOCATER V4.66.97.0                                                        06/16/2023  12:31:30  PAGE 59


      000000D8H.5 SFRSYM    DATA     BIT       P55
      000000C0H.6 SFRSYM    DATA     BIT       P46
      000000B0H.7 SFRSYM    DATA     BIT       P37
      000000D8H.6 SFRSYM    DATA     BIT       P56
      000000C0H.7 SFRSYM    DATA     BIT       P47
      000000EAH   SFRSYM    DATA     BYTE      RTAS
      000000AFH   SFRSYM    DATA     BYTE      HVTH
      00000095H   SFRSYM    DATA     BYTE      RCTAGH
      000000D8H.7 SFRSYM    DATA     BIT       P57
      000000F2H   SFRSYM    DATA     BYTE      RTCS
      00000088H.1 SFRSYM    DATA     BIT       IE0
      00000088H.3 SFRSYM    DATA     BIT       IE1
      00000094H   SFRSYM    DATA     BYTE      RCTAGL
      000000F0H   SFRSYM    DATA     BYTE      B
      000000E7H   SFRSYM    DATA     BYTE      MDUDAT
      000000DEH   SFRSYM    DATA     BYTE      PWMCFG
      000000D4H   SFRSYM    DATA     BYTE      PWMAIF
      000000E0H   SFRSYM    DATA     BYTE      ACC
      000000D5H   SFRSYM    DATA     BYTE      PWMBIF
      0000009FH   SFRSYM    DATA     BYTE      RCMSHH
      000000A8H.4 SFRSYM    DATA     BIT       ES0
      000000EFH   SFRSYM    DATA     BYTE      LVDCON
      000000E6H   SFRSYM    DATA     BYTE      MDUCON
      000000D6H   SFRSYM    DATA     BYTE      PWMCIF
      000000A8H.1 SFRSYM    DATA     BIT       ET0
      000000A8H.6 SFRSYM    DATA     BIT       ES1
      000000D7H   SFRSYM    DATA     BYTE      PWMDIF
      000000A8H.3 SFRSYM    DATA     BIT       ET1
      00000088H.5 SFRSYM    DATA     BIT       TF0
      000000FDH   SFRSYM    DATA     BYTE      IDLSTH
      000000AEH   SFRSYM    DATA     BYTE      PLLCON
      000000A8H.5 SFRSYM    DATA     BIT       ET2
      00000098H.0 SFRSYM    DATA     BIT       RI0
      00000088H.7 SFRSYM    DATA     BIT       TF1
      0000009EH   SFRSYM    DATA     BYTE      RCMSHL
      00000097H   SFRSYM    DATA     BYTE      RCMSLH
      000000C8H.7 SFRSYM    DATA     BIT       TF2
      00000098H.2 SFRSYM    DATA     BIT       RB8
      0000008CH   SFRSYM    DATA     BYTE      TH0
      000000A8H.0 SFRSYM    DATA     BIT       EX0
      00000098H.1 SFRSYM    DATA     BIT       TI0
      00000088H.0 SFRSYM    DATA     BIT       IT0
      0000008DH   SFRSYM    DATA     BYTE      TH1
      000000A8H.2 SFRSYM    DATA     BIT       EX1
      00000098H.3 SFRSYM    DATA     BIT       TB8
      00000088H.2 SFRSYM    DATA     BIT       IT1
      000000FCH   SFRSYM    DATA     BYTE      IDLSTL
      000000CDH   SFRSYM    DATA     BYTE      TH2
      000000D0H.0 SFRSYM    DATA     BIT       P
      00000096H   SFRSYM    DATA     BYTE      RCMSLL
      00000098H.7 SFRSYM    DATA     BIT       SM0
      0000008AH   SFRSYM    DATA     BYTE      TL0
      00000098H.6 SFRSYM    DATA     BIT       SM1
      000000E5H   SFRSYM    DATA     BYTE      LXDIVH
      0000008BH   SFRSYM    DATA     BYTE      TL1
      00000098H.5 SFRSYM    DATA     BIT       SM2
      000000CCH   SFRSYM    DATA     BYTE      TL2
      000000B8H.4 SFRSYM    DATA     BIT       PS0
      000000B8H.1 SFRSYM    DATA     BIT       PT0
      000000B8H.6 SFRSYM    DATA     BIT       PS1
      000000B8H.3 SFRSYM    DATA     BIT       PT1
      000000D0H.3 SFRSYM    DATA     BIT       RS0
      000000E4H   SFRSYM    DATA     BYTE      LXDIVL
      000000BDH   SFRSYM    DATA     BYTE      ADCDH
      000000B8H.5 SFRSYM    DATA     BIT       PT2
LX51 LINKER/LOCATER V4.66.97.0                                                        06/16/2023  12:31:30  PAGE 60


      00000088H.4 SFRSYM    DATA     BIT       TR0
      000000D0H.4 SFRSYM    DATA     BIT       RS1
      000000DDH   SFRSYM    DATA     BYTE      PWMCON
      00000088H.6 SFRSYM    DATA     BIT       TR1
      000000ADH   SFRSYM    DATA     BYTE      WDVTHH
      000000C8H.6 SFRSYM    DATA     BIT       TR2
      000000B8H.0 SFRSYM    DATA     BIT       PX0
      000000B8H.2 SFRSYM    DATA     BIT       PX1
      000000BCH   SFRSYM    DATA     BYTE      ADCDL
      000000ACH   SFRSYM    DATA     BYTE      WDVTHL
      000000DBH   SFRSYM    DATA     BYTE      PWMUPD
      00000099H   SFRSYM    DATA     BYTE      S0BUF
      0000009BH   SFRSYM    DATA     BYTE      S1BUF
      000000A2H   SFRSYM    DATA     BYTE      S2BUF
      00000098H   SFRSYM    DATA     BYTE      S0CON
      00000098H.4 SFRSYM    DATA     BIT       REN
      0000009AH   SFRSYM    DATA     BYTE      S1CON
      000000B9H   SFRSYM    DATA     BYTE      ADCON
      000000A1H   SFRSYM    DATA     BYTE      S2CON
      000000D0H.1 SFRSYM    DATA     BIT       DPS
      000000C9H   SFRSYM    DATA     BYTE      T2MOD
      000000C8H   SFRSYM    DATA     BYTE      T2CON
      000000FFH   SFRSYM    DATA     BYTE      STPSTH
      000000BFH   SFRSYM    DATA     BYTE      CKMIF
      000000FEH   SFRSYM    DATA     BYTE      STPSTL
      000000C2H   SFRSYM    DATA     BYTE      TKCFG
      00000093H   SFRSYM    DATA     BYTE      VCKDH
      000000D0H.5 SFRSYM    DATA     BIT       F0
      000000E2H   SFRSYM    DATA     BYTE      LXCFG
      000000ABH   SFRSYM    DATA     BYTE      WDFLG
      00000092H   SFRSYM    DATA     BYTE      VCKDL
      000000FBH   SFRSYM    DATA     BYTE      EPCON
      000000F6H   SFRSYM    DATA     BYTE      RTCDH
      000000C6H   SFRSYM    DATA     BYTE      ATKMH
      00000091H   SFRSYM    DATA     BYTE      RCCON
      000000F7H   SFRSYM    DATA     BYTE      INDEX
      000000EEH   SFRSYM    DATA     BYTE      RTCIF
      000000BEH   SFRSYM    DATA     BYTE      CKMON
      000000F5H   SFRSYM    DATA     BYTE      RTCDL
      000000D0H   SFRSYM    DATA     BYTE      PSW
      000000C5H   SFRSYM    DATA     BYTE      ATKML
      000000AAH   SFRSYM    DATA     BYTE      WDCON
      000000A6H   SFRSYM    DATA     BYTE      SPDAT
      00000007H   SYMBOL    DATA     BYTE      second
      00000007H   SYMBOL    DATA     BYTE      minute
      00000007H   SYMBOL    DATA     BYTE      hour
      00000006H   SYMBOL    DATA     WORD      day
      00000007H   SYMBOL    DATA     BYTE      week

      0100125BH   BLOCK     CODE     ---       LVL=0
      0100125BH   LINE      CODE     ---       #98
      0100125DH   LINE      CODE     ---       #100
      01001262H   LINE      CODE     ---       #101
      01001262H   LINE      CODE     ---       #102
      01001265H   LINE      CODE     ---       #103
      01001265H   LINE      CODE     ---       #104
      0100126AH   LINE      CODE     ---       #105
      0100126AH   LINE      CODE     ---       #106
      0100126DH   LINE      CODE     ---       #107
      0100126FH   LINE      CODE     ---       #108
      0100126FH   LINE      CODE     ---       #109
      01001274H   LINE      CODE     ---       #110
      01001274H   LINE      CODE     ---       #111
      01001277H   LINE      CODE     ---       #112
      01001279H   LINE      CODE     ---       #113
LX51 LINKER/LOCATER V4.66.97.0                                                        06/16/2023  12:31:30  PAGE 61


      01001279H   LINE      CODE     ---       #114
      ---         BLOCKEND  ---      ---       LVL=0

      ---         MODULE    ---      ---       ?C_STARTUP
      01000000H   PUBLIC    CODE     ---       ?C_STARTUP
      000000E0H   SYMBOL    DATA     ---       ACC
      000000F0H   SYMBOL    DATA     ---       B
      00000083H   SYMBOL    DATA     ---       DPH
      00000082H   SYMBOL    DATA     ---       DPL
      00000000H   SYMBOL    NUMBER   ---       IBPSTACK
      00000100H   SYMBOL    NUMBER   ---       IBPSTACKTOP
      00000080H   SYMBOL    NUMBER   ---       IDATALEN
      01000060H   SYMBOL    CODE     ---       IDATALOOP
      00000000H   SYMBOL    NUMBER   ---       PBPSTACK
      00000100H   SYMBOL    NUMBER   ---       PBPSTACKTOP
      00000000H   SYMBOL    NUMBER   ---       PDATALEN
      00000000H   SYMBOL    NUMBER   ---       PDATASTART
      00000000H   SYMBOL    NUMBER   ---       PPAGE
      00000000H   SYMBOL    NUMBER   ---       PPAGEENABLE
      000000A0H   SYMBOL    DATA     ---       PPAGE_SFR
      00000081H   SYMBOL    DATA     ---       SP
      0100005DH   SYMBOL    CODE     ---       STARTUP1
      00000000H   SYMBOL    NUMBER   ---       XBPSTACK
      00000000H   SYMBOL    NUMBER   ---       XBPSTACKTOP
      00000000H   SYMBOL    NUMBER   ---       XDATALEN
      00000000H   SYMBOL    NUMBER   ---       XDATASTART
      01000000H   LINE      CODE     ---       #126
      0100005DH   LINE      CODE     ---       #133
      0100005FH   LINE      CODE     ---       #134
      01000060H   LINE      CODE     ---       #135
      01000061H   LINE      CODE     ---       #136
      01000063H   LINE      CODE     ---       #185
      01000066H   LINE      CODE     ---       #196

      ---         MODULE    ---      ---       ?C?FPADD
      01000075H   PUBLIC    CODE     ---       ?C?FPADD
      01000071H   PUBLIC    CODE     ---       ?C?FPSUB

      ---         MODULE    ---      ---       ?C?FPMUL
      01000166H   PUBLIC    CODE     ---       ?C?FPMUL

      ---         MODULE    ---      ---       ?C?FPDIV
      0100026FH   PUBLIC    CODE     ---       ?C?FPDIV

      ---         MODULE    ---      ---       ?C?FPCMP
      0100030EH   PUBLIC    CODE     ---       ?C?FPCMP
      0100030CH   PUBLIC    CODE     ---       ?C?FPCMP3

      ---         MODULE    ---      ---       ?C?FCAST
      0100038FH   PUBLIC    CODE     ---       ?C?FCASTC
      0100038AH   PUBLIC    CODE     ---       ?C?FCASTI
      01000385H   PUBLIC    CODE     ---       ?C?FCASTL

      ---         MODULE    ---      ---       VSPRINTF
      0001003CH   PUBLIC    DATA     ---       ?_VSPRINTF?BYTE
      01000003H   PUBLIC    CODE     ---       _VSPRINTF

      ---         MODULE    ---      ---       ?C?FPGETOPN
      010003C3H   PUBLIC    CODE     ---       ?C?FPGETOPN2
      010003F8H   PUBLIC    CODE     ---       ?C?FPNANRESULT
      01000402H   PUBLIC    CODE     ---       ?C?FPOVERFLOW
      010003DAH   PUBLIC    CODE     ---       ?C?FPRESULT
      010003EEH   PUBLIC    CODE     ---       ?C?FPRESULT2
      010003FFH   PUBLIC    CODE     ---       ?C?FPUNDERFLOW

LX51 LINKER/LOCATER V4.66.97.0                                                        06/16/2023  12:31:30  PAGE 62


      ---         MODULE    ---      ---       PRINTF
      00000045H   PUBLIC    DATA     ---       ?_PRINTF?BYTE
      00000045H   PUBLIC    DATA     ---       ?_SPRINTF?BYTE
      010008DCH   PUBLIC    CODE     ---       _PRINTF
      010008D6H   PUBLIC    CODE     ---       _SPRINTF

      ---         MODULE    ---      ---       ?C?FPROUND
      0100040DH   PUBLIC    CODE     ---       ?C?FPROUND

      ---         MODULE    ---      ---       ?C?FPCONVERT
      0100043CH   PUBLIC    CODE     ---       ?C?FPCONVERT

      ---         MODULE    ---      ---       ?C?FTNPWR
      0100056FH   PUBLIC    CODE     ---       ?C?FTNPWR

      ---         MODULE    ---      ---       ?C?CLDPTR
      010005AFH   PUBLIC    CODE     ---       ?C?CLDPTR

      ---         MODULE    ---      ---       ?C?CLDOPTR
      010005C8H   PUBLIC    CODE     ---       ?C?CLDOPTR

      ---         MODULE    ---      ---       ?C?CSTPTR
      010005F5H   PUBLIC    CODE     ---       ?C?CSTPTR

      ---         MODULE    ---      ---       ?C?LMUL
      01000607H   PUBLIC    CODE     ---       ?C?LMUL

      ---         MODULE    ---      ---       ?C?ULDIV
      01000692H   PUBLIC    CODE     ---       ?C?ULDIV

      ---         MODULE    ---      ---       ?C?LNEG
      01000724H   PUBLIC    CODE     ---       ?C?LNEG

      ---         MODULE    ---      ---       ?C?LLDOPTR
      01000732H   PUBLIC    CODE     ---       ?C?LLDOPTR

      ---         MODULE    ---      ---       ?C?LSTOPTR
      01000762H   PUBLIC    CODE     ---       ?C?LSTOPTR

      ---         MODULE    ---      ---       ?C?LLDOPTR0
      01000786H   PUBLIC    CODE     ---       ?C?LLDOPTR0

      ---         MODULE    ---      ---       ?C?LSTIDATA
      010007B6H   PUBLIC    CODE     ---       ?C?LSTIDATA

      ---         MODULE    ---      ---       ?C?PLDIIDATA
      010007C2H   PUBLIC    CODE     ---       ?C?PLDIIDATA

      ---         MODULE    ---      ---       ?C?CCASE
      010007D2H   PUBLIC    CODE     ---       ?C?CCASE

      ---         MODULE    ---      ---       PUTCHAR
      01000036H   PUBLIC    CODE     ---       _PUTCHAR

      ---         MODULE    ---      ---       ?C?LLDIDATA
      010007F8H   PUBLIC    CODE     ---       ?C?LLDIDATA

      ---         MODULE    ---      ---       ?C?LLDXDATA
      01000804H   PUBLIC    CODE     ---       ?C?LLDXDATA

      ---         MODULE    ---      ---       ?C?LLDPDATA
      01000810H   PUBLIC    CODE     ---       ?C?LLDPDATA

      ---         MODULE    ---      ---       ?C?LLDCODE
      0100081CH   PUBLIC    CODE     ---       ?C?LLDCODE
LX51 LINKER/LOCATER V4.66.97.0                                                        06/16/2023  12:31:30  PAGE 63



      ---         MODULE    ---      ---       ?C?LLDIDATA0
      0100082CH   PUBLIC    CODE     ---       ?C?LLDIDATA0

      ---         MODULE    ---      ---       ?C?LLDXDATA0
      01000839H   PUBLIC    CODE     ---       ?C?LLDXDATA0

      ---         MODULE    ---      ---       ?C?LLDPDATA0
      01000845H   PUBLIC    CODE     ---       ?C?LLDPDATA0

      ---         MODULE    ---      ---       ?C?LLDCODE0
      01000852H   PUBLIC    CODE     ---       ?C?LLDCODE0

      ---         MODULE    ---      ---       ?C?LSTXDATA
      01000862H   PUBLIC    CODE     ---       ?C?LSTXDATA

      ---         MODULE    ---      ---       ?C?LSTPDATA
      0100086EH   PUBLIC    CODE     ---       ?C?LSTPDATA



*** ERROR L107: ADDRESS SPACE OVERFLOW
    SPACE:   DATA
    SEGMENT: _DATA_GROUP_
    LENGTH:  000061H   

*** WARNING L25: DATA TYPES DIFFERENT
    SYMBOL:  getgxth30
    MODULE:  .\output\main.obj (MAIN)
   DEFINED:  .\output\gxhtc.obj (GXHTC)

Program Size: data=161.4 xdata=598 const=60 code=4914
LX51 RUN COMPLETE.  1 WARNING(S),  1 ERROR(S)
